((dp0
S'arm_dbg_args'
p1
S'-via:"c:\\Users\\YUSUKE-SATO\\Documents\\GitHub\\MonkFlip\\MonkFlip\\build_monkflip_vc12x\\MonkFlip_vc12x_arm_debug.via" -qemu'
p2
sS'game-icf'
p3
S''
p4
sS'dist'
p5
NsS'csproj'
p6
g4
sS'module_path_append'
p7
NsS'global_path'
p8
S'c:\\users\\yusuke-sato\\documents\\github\\monkflip'
p9
sS'system_path'
p10
S'c:\\marmalade\\7.4\\s3e\\makefile_builder'
p11
sS'android_x86_dbg_args'
p12
S'../../tools/DeployTool/DeployTool.exe --dir "c:\\Users\\YUSUKE-SATO\\Documents\\GitHub\\MonkFlip\\MonkFlip\\build_monkflip_vc12x"'
p13
sS'no-emit'
p14
NsS'arm-float-abi'
p15
g4
sS'arm_rel_rtsm_args'
p16
S'-via:"c:\\Users\\YUSUKE-SATO\\Documents\\GitHub\\MonkFlip\\MonkFlip\\build_monkflip_vc12x\\MonkFlip_vc12x_arm_release.via" -qemu'
p17
sS'amd64'
p18
NsS'line-width'
p19
I80
sS'gcc_dbg_args'
p20
S'-via:"c:\\Users\\YUSUKE-SATO\\Documents\\GitHub\\MonkFlip\\MonkFlip\\build_monkflip_vc12x\\MonkFlip_vc12x_gcc_debug.via" -qemu'
p21
sS'android-x86'
p22
NsS'x86_dbg_exe'
p23
S'c:/marmalade/7.4/s3e\\win32\\s3e_simulator_debug.exe'
p24
sS'disable-runtime-checks'
p25
NsS'release'
p26
NsS'no-make'
p27
NsS'xcode-x86-build-settings'
p28
g4
sS'optimise-size'
p29
NsS'output-name-debug'
p30
g4
sS'arm-fpu'
p31
g4
sS'proj_name'
p32
S'MonkFlip_vc12x'
p33
sS'rvct-version'
p34
S'none'
p35
sS'compiler'
p36
g4
sS'execute'
p37
NsS'compile-static'
p38
NsS'msvc-project'
p39
NsS'buildenv'
p40
g4
sS'quick'
p41
NsS'module_path'
p42
NsS'use-release-std-libs'
p43
NsS'using_perforce'
p44
I00
sS'tizen-x86'
p45
NsS'mips-s3e'
p46
NsS's3e-api-lib-name'
p47
S's3e_api_iwgl'
p48
sS'ios-no-pic'
p49
NsS'shared-arm-lib'
p50
NsS'arm-cpu'
p51
g4
sS'compile-thumb'
p52
NsS'no-ide'
p53
NsS'msvc-version'
p54
S'6.0'
p55
sS'arm'
p56
NsS'builddir'
p57
g4
sS'compile-debug-as-release'
p58
I0
sS'arm-arch'
p59
g4
sS'brief'
p60
NsS'dll'
p61
NsS'buildenv-toolset'
p62
g4
sS'version'
p63
NsS'ccache'
p64
I0
sS'offline'
p65
NsS'ios-version'
p66
g4
sS'hub_data'
p67
g4
sS'fake_vc_call'
p68
NsS'jobs'
p69
I0
sS'linkflags'
p70
NsS'debug'
p71
NsS'xcode-build-order'
p72
g4
sS'gcc_rel_rtsm_args'
p73
S'-via:"c:\\Users\\YUSUKE-SATO\\Documents\\GitHub\\MonkFlip\\MonkFlip\\build_monkflip_vc12x\\MonkFlip_vc12x_gcc_release.via" -qemu'
p74
sS'done_defaults'
p75
I1
sS'path'
p76
NsS's3e-data-dir'
p77
S'c:/Users/YUSUKE-SATO/Documents/GitHub/MonkFlip/MonkFlip\\data'
p78
sS'enable-exceptions'
p79
NsS'osx-dll'
p80
NsS'extension'
p81
g4
sS'no-vc6'
p82
NsS'non-interactive'
p83
NsS'win32-console'
p84
NsS'dist-format'
p85
g4
sS's3e-force-arch'
p86
NsS'dump_defines'
p87
NsS'use_prebuilt'
p88
NsS'gcc-version'
p89
g4
sS'x86_dbg_args'
p90
S'-via:"c:\\Users\\YUSUKE-SATO\\Documents\\GitHub\\MonkFlip\\MonkFlip\\build_monkflip_vc12x\\MonkFlip_vc12x_debug.via"'
p91
sS'tizen_x86_dbg_args'
p92
g13
sS'arm-debugger'
p93
g4
sS'use_temp_extension'
p94
NsS'verbose'
p95
I0
sS'log'
p96
NsS'no-strip'
p97
NsS'rebuild'
p98
NsS'win32-simulator-dll'
p99
NsS'strict'
p100
NsS'mips_dbg_args'
p101
g13
sS'enable-global-path'
p102
NsS'cflags'
p103
NsS'dist-dir'
p104
g4
sS'xcode-arm-build-settings'
p105
g4
sS'jflags'
p106
NsS'csprojSDKRefs'
p107
g4
sS'tizen_x86_rel_exe'
p108
S'c:\\marmalade\\7.4\\s3e\\makefile_builder\\tool_launcher.exe'
p109
sS'test-assets'
p110
g4
sS'distcc'
p111
NsS'external-compiler'
p112
NsS'no-distcc'
p113
NsS'preinclude'
p114
NsS'using_sdk'
p115
I01
sS'nologo'
p116
NsS'warn-level'
p117
I2
sS'mips_dbg_exe'
p118
g109
sS'mkb_in'
p119
S'c:/Users/YUSUKE-SATO/Documents/GitHub/MonkFlip/MonkFlip/MonkFlip.mkb'
p120
sS'tizen_x86_dbg_exe'
p121
g109
sS'arm_dbg_exe'
p122
S'c:/marmalade/7.4/s3e\\bin\\armdebug.exe'
p123
sS'csprojDLLRef'
p124
NsS'tizen_x86_rel_args'
p125
g13
sS'android_x86_dbg_exe'
p126
g109
sS'test-config'
p127
g4
sS'list-targets'
p128
NsS'arm_rel_exe'
p129
g109
sS'arm_rel_args'
p130
g13
sS'makedeps'
p131
NsS'android_x86_rel_exe'
p132
g109
sS'default-buildenv'
p133
S'VC12X'
p134
sS'x86_rel_exe'
p135
g24
sS'preprocess-java'
p136
NsS'mips_rel_args'
p137
g13
sS'defines'
p138
NsS'lib'
p139
NsS'global_argv'
p140
(lp141
S'C:\\Marmalade\\7.4\\s3e\\makefile_builder\\mkb.py'
p142
aS'C:\\Users\\YUSUKE-SATO\\Documents\\GitHub\\MonkFlip\\MonkFlip\\MonkFlip.mkb'
p143
asS'make'
p144
NsS'optimise-speed'
p145
NsS'internal'
p146
NsS'enable-stdinc'
p147
NsS'deploy-only'
p148
NsS'x86'
p149
NsS'deploy'
p150
g4
sS'x86_run_exe'
p151
S'c:/marmalade/7.4/s3e\\win32\\s3e_console.exe'
p152
sS'x86_rel_args'
p153
S'-via:"c:\\Users\\YUSUKE-SATO\\Documents\\GitHub\\MonkFlip\\MonkFlip\\build_monkflip_vc12x\\MonkFlip_vc12x_release.via"'
p154
sS'gcc_rel_args'
p155
g13
sS'mips'
p156
NsS'xcode-build-settings'
p157
g4
sS'incredibuild'
p158
NsS'strict-compile'
p159
NsS'use-auto-subdirs'
p160
NsS'mips_rel_exe'
p161
g109
sS'android_x86_rel_args'
p162
g13
sS'app-icf'
p163
g4
sS'deployargs'
p164
NsS'iosnativedebug'
p165
NsS'mkf_in'
p166
(lp167
S'c:\\marmalade\\7.4\\modules\\iw2d\\iw2d.mkf'
p168
aS'c:\\marmalade\\7.4\\modules\\iwgx\\iwgx.mkf'
p169
aS'c:\\marmalade\\7.4\\modules\\iwgl\\iwgl.mkf'
p170
aS'c:\\marmalade\\7.4\\modules\\iwutil\\iwutil.mkf'
p171
aS'c:\\marmalade\\7.4\\modules\\third_party\\libjpeg\\libjpeg.mkf'
p172
aS'c:\\marmalade\\7.4\\modules\\third_party\\libpng\\libpng.mkf'
p173
aS'c:\\marmalade\\7.4\\modules\\third_party\\zlib\\zlib.mkf'
p174
aS'c:\\marmalade\\7.4\\modules\\iwgeom\\iwgeom.mkf'
p175
aS'c:\\marmalade\\7.4\\modules\\iwresmanager\\iwresmanager.mkf'
p176
aS'c:\\marmalade\\7.4\\extensions\\pvrtextool\\pvrtextool.mkf'
p177
aS'c:\\marmalade\\7.4\\modules\\iwgxfont\\iwgxfont.mkf'
p178
aS'c:\\marmalade\\7.4\\modules\\third_party\\tiniconv\\tiniconv.mkf'
p179
asS'strict-mkb'
p180
NsS'executeargs'
p181
NsS'clean'
p182
NsS'no-asm'
p183
NsS'output-name'
p184
g4
sS'no-modules'
p185
NsS'find_define'
p186
g4
s(dp187
S'c:\\marmalade\\7.4\\s3e\\makefile_builder\\plugins\\Emitter.pyc'
p188
F1409106506.0
sS'c:\\marmalade\\7.4\\s3e\\makefile_builder\\templates\\ws8_ext_sln.pyc'
p189
F1409106508.0
sS'c:\\marmalade\\7.4\\s3e\\makefile_builder\\templates\\MainWindow.xib'
p190
F1409103204.0
sS'c:\\marmalade\\7.4\\s3e\\makefile_builder\\templates\\template.suo'
p191
F1409103204.0
sS'c:\\marmalade\\7.4\\s3e\\makefile_builder\\plugins\\xcode4_schememanagement.py'
p192
F1409103204.0
sS'c:\\marmalade\\7.4\\s3e\\makefile_builder\\templates\\ws81_sln.pyc'
p193
F1409106508.0
sS'c:\\marmalade\\7.4\\s3e\\makefile_builder\\templates\\win8_ext_csproj.pyc'
p194
F1409106508.0
sS'c:\\marmalade\\7.4\\s3e\\makefile_builder\\mkb_option.pyc'
p195
F1409106506.0
sS'c:\\marmalade\\7.4\\s3e\\makefile_builder\\plugins\\s3e_xcode.py'
p196
F1409103204.0
sS'c:\\marmalade\\7.4\\s3e\\makefile_builder\\plugins\\s3e_scons.pyc'
p197
F1409106506.0
sS'c:\\marmalade\\7.4\\s3e\\makefile_builder\\templates\\win8_vcxproj.pyc'
p198
F1409106508.0
sS'c:\\marmalade\\7.4\\s3e\\makefile_builder\\plugins\\null.pyc'
p199
F1409106506.0
sS'c:\\marmalade\\7.4\\s3e\\makefile_builder\\templates\\vc8_user.pyc'
p200
F1409106506.0
sS'c:\\marmalade\\7.4\\s3e\\makefile_builder\\templates\\wp81_ext_sln.pyc'
p201
F1409106508.0
sS'c:\\marmalade\\7.4\\s3e\\makefile_builder\\templates\\scons.pyc'
p202
F1409106506.0
sS'c:\\marmalade\\7.4\\s3e\\makefile_builder\\templates\\wp8_ext_csproj.pyc'
p203
F1409106508.0
sS'c:\\marmalade\\7.4\\s3e\\makefile_builder\\templates\\xcode_pbxuser.py'
p204
F1409103204.0
sS'c:\\marmalade\\7.4\\s3e\\makefile_builder\\plugins\\s3e_qmake.py'
p205
F1409103204.0
sS'c:\\marmalade\\7.4\\s3e\\makefile_builder\\plugins\\iphone.pyc'
p206
F1409106506.0
sS'c:\\marmalade\\7.4\\s3e\\makefile_builder\\templates\\ws81_ext_csproj.pyc'
p207
F1409106508.0
sS'c:\\marmalade\\7.4\\s3e\\makefile_builder\\templates\\vc6_opt.pyc'
p208
F1409106506.0
sS'c:\\marmalade\\7.4\\s3e\\makefile_builder\\plugins\\s3e_win8.pyc'
p209
F1409106506.0
sS'c:\\marmalade\\7.4\\s3e\\makefile_builder\\mkb_main.pyc'
p210
F1409106506.0
sS'c:\\marmalade\\7.4\\s3e\\makefile_builder\\templates\\wp8_csproj.pyc'
p211
F1409106508.0
sS'c:\\marmalade\\7.4\\s3e\\makefile_builder\\templates\\win32_vcproj.pyc'
p212
F1409106506.0
sS'c:\\marmalade\\7.4\\s3e\\makefile_builder\\templates\\win8_sln.pyc'
p213
F1409106508.0
sS'c:\\marmalade\\7.4\\s3e\\makefile_builder\\mkb_launcher.exe'
p214
F1409103760.0
sS'c:\\marmalade\\7.4\\s3e\\makefile_builder\\plugins\\osx_xcode.pyc'
p215
F1409106506.0
sS'c:\\marmalade\\7.4\\s3e\\makefile_builder\\plugins'
p216
F1410825733.5356746
sS'c:\\marmalade\\7.4\\s3e\\makefile_builder\\templates\\wp8_csproj_user.pyc'
p217
F1409106508.0
sS'c:\\marmalade\\7.4\\s3e\\makefile_builder\\plugins\\win32_vc6.pyc'
p218
F1409106506.0
sS'c:\\marmalade\\7.4\\s3e\\makefile_builder\\plugins\\s3e_vc6.pyc'
p219
F1409106506.0
sS'c:\\marmalade\\7.4\\s3e\\makefile_builder\\templates\\vc10_user.pyc'
p220
F1409106506.0
sS'c:\\marmalade\\7.4\\s3e\\makefile_builder\\docs\\deprecated.defines.txt'
p221
F1409103204.0
sS'c:\\marmalade\\7.4\\s3e\\makefile_builder\\templates\\wp81_csproj_user.pyc'
p222
F1409106508.0
sS'c:\\marmalade\\7.4\\s3e\\makefile_builder\\templates\\ws81_ext_sln.pyc'
p223
F1409106508.0
sS'c:\\marmalade\\7.4\\s3e\\makefile_builder\\templates\\make.py'
p224
F1409103204.0
sS'c:\\marmalade\\7.4\\s3e\\makefile_builder\\plugins\\wp81_wp81.pyc'
p225
F1409106506.0
sS'c:\\marmalade\\7.4\\s3e\\makefile_builder\\plugins\\s3e_qmake.pyc'
p226
F1410825733.1649926
sS'c:\\marmalade\\7.4\\s3e\\makefile_builder\\templates\\mips_linker_script'
p227
F1409103204.0
sS'c:\\marmalade\\7.4\\s3e\\makefile_builder\\plugins\\deploy.pyc'
p228
F1409106506.0
sS'c:\\marmalade\\7.4\\s3e\\makefile_builder\\plugins\\ws81_ws81.pyc'
p229
F1409106506.0
sS'c:\\marmalade\\7.4\\s3e\\makefile_builder\\mkb.py'
p230
F1409103204.0
sS'c:\\marmalade\\7.4\\s3e\\makefile_builder\\docs\\options.txt'
p231
F1409103204.0
sS'c:\\marmalade\\7.4\\s3e\\makefile_builder\\mkb_parser.pyc'
p232
F1409106506.0
sS'c:\\marmalade\\7.4\\s3e\\makefile_builder\\templates\\qmake_user.py'
p233
F1409103204.0
sS'c:\\marmalade\\7.4\\s3e\\makefile_builder\\docs\\mkb.defines.txt'
p234
F1409103204.0
sS'c:\\marmalade\\7.4\\s3e\\makefile_builder\\deployment.pyc'
p235
F1409106506.0
sS'c:\\marmalade\\7.4\\s3e\\makefile_builder\\plugins\\wp8_wp8.pyc'
p236
F1409106506.0
sS'c:\\marmalade\\7.4\\s3e\\makefile_builder\\plugins\\linux_scons.pyc'
p237
F1409106506.0
sS'c:\\marmalade\\7.4\\s3e\\makefile_builder\\plugins\\s3e_web.pyc'
p238
F1409106506.0
sS'c:\\marmalade\\7.4\\s3e\\makefile_builder\\plugins\\S3EEmitter.pyc'
p239
F1409106506.0
sS'c:\\marmalade\\7.4\\s3e\\makefile_builder\\plugins\\Win8Emitter.pyc'
p240
F1409106506.0
sS'c:\\marmalade\\7.4\\s3e\\makefile_builder\\templates\\xcode4_arm.xcscheme'
p241
F1409103204.0
sS'c:\\marmalade\\7.4\\s3e\\makefile_builder\\plugins\\vc6_utils.pyc'
p242
F1409106506.0
sS'c:\\marmalade\\7.4\\s3e\\makefile_builder\\templates\\wp8_vcxproj.pyc'
p243
F1409106508.0
sS'c:\\marmalade\\7.4\\s3e\\makefile_builder\\templates\\xcode4.xcscheme'
p244
F1409103204.0
sS'c:\\marmalade\\7.4\\s3e\\makefile_builder\\plugins\\MakeEmitter.pyc'
p245
F1409106506.0
sS'c:\\marmalade\\7.4\\s3e\\makefile_builder\\plugins\\java.pyc'
p246
F1409106506.0
sS'c:\\marmalade\\7.4\\s3e\\makefile_builder\\plugins\\XcodeEmitter.pyc'
p247
F1410825732.62259
sS'c:\\marmalade\\7.4\\s3e\\makefile_builder\\plugins\\XcodeEmitter.py'
p248
F1409103204.0
sS'c:\\marmalade\\7.4\\s3e\\makefile_builder\\mkb_globals.pyc'
p249
F1409106506.0
sS'c:\\marmalade\\7.4\\s3e\\makefile_builder\\tool_launcher.exe'
p250
F1409103760.0
sS'c:\\marmalade\\7.4\\s3e\\makefile_builder\\mkb_util.pyc'
p251
F1409106506.0
sS'c:\\marmalade\\7.4\\s3e\\makefile_builder\\plugins\\xcode4_schememanagement.pyc'
p252
F1410825732.6686263
sS'c:\\marmalade\\7.4\\s3e\\makefile_builder\\templates\\ws8_sln.pyc'
p253
F1409106508.0
sS'c:\\marmalade\\7.4\\s3e\\makefile_builder\\templates\\win32_sln.pyc'
p254
F1409106506.0
sS'c:\\marmalade\\7.4\\s3e\\makefile_builder\\templates\\wp81_ext_csproj.pyc'
p255
F1409106508.0
sS'c:\\marmalade\\7.4\\s3e\\makefile_builder\\plugins\\s3e_wp81.pyc'
p256
F1409106506.0
sS'c:\\marmalade\\7.4\\s3e\\makefile_builder\\plugins\\s3e_wp8.pyc'
p257
F1409106506.0
sS'c:\\marmalade\\7.4\\s3e\\makefile_builder\\templates\\qmake.py'
p258
F1409103204.0
sS'c:\\marmalade\\7.4\\s3e\\makefile_builder\\templates\\gdb_start.txt'
p259
F1409103204.0
sS'c:\\marmalade\\7.4\\s3e\\makefile_builder\\templates'
p260
F1410731771.2182727
sS'c:\\marmalade\\7.4\\s3e\\makefile_builder\\templates\\ws8_ext_csproj.pyc'
p261
F1409106508.0
sS'c:\\marmalade\\7.4\\s3e\\makefile_builder\\templates\\win8_csproj_user.pyc'
p262
F1409106508.0
sS'c:\\marmalade\\7.4\\s3e\\makefile_builder\\templates\\vc7_suo.pyc'
p263
F1409106506.0
sS'c:\\marmalade\\7.4\\s3e\\makefile_builder\\plugins\\VisualStudioEmitter.pyc'
p264
F1409106506.0
sS'c:\\marmalade\\7.4\\s3e\\makefile_builder\\templates\\linker_script'
p265
F1409103204.0
sS'c:\\marmalade\\7.4\\s3e\\makefile_builder\\docs\\deprecated.options.txt'
p266
F1409103204.0
sS'c:\\marmalade\\7.4\\s3e\\makefile_builder\\plugins\\s3e_xcode.pyc'
p267
F1410825733.5366743
sS'c:\\marmalade\\7.4\\s3e\\makefile_builder\\plugins\\s3e_ws8.pyc'
p268
F1409106506.0
sS'c:\\marmalade\\7.4\\s3e\\makefile_builder\\templates\\xcode4_DeployTool.xcscheme'
p269
F1409103204.0
sS'c:\\marmalade\\7.4\\s3e\\makefile_builder\\templates\\ws8_csproj_user.pyc'
p270
F1409106508.0
sS'c:\\marmalade\\7.4\\s3e\\makefile_builder\\plugins\\osx_scons.pyc'
p271
F1409106506.0
sS'c:\\marmalade\\7.4\\s3e\\makefile_builder\\templates\\ws81_csproj.pyc'
p272
F1409106508.0
sS'c:\\marmalade\\7.4\\s3e\\makefile_builder\\templates\\wp8_sln.pyc'
p273
F1409106508.0
sS'c:\\marmalade\\7.4\\s3e\\makefile_builder\\docs'
p274
F1410731771.2993295
sS'c:\\marmalade\\7.4\\s3e\\makefile_builder\\plugins\\ws8_ws8.pyc'
p275
F1409106506.0
sS'c:\\marmalade\\7.4\\s3e\\makefile_builder\\docs\\deployment_options.txt'
p276
F1409103204.0
sS'c:\\marmalade\\7.4\\s3e\\makefile_builder\\templates\\win32_vcxproj_filters.pyc'
p277
F1409106506.0
sS'c:\\marmalade\\7.4\\s3e\\makefile_builder\\templates\\win32_dsw.pyc'
p278
F1409106506.0
sS'c:\\marmalade\\7.4\\s3e\\makefile_builder\\plugins\\s3e_ws81.pyc'
p279
F1409106506.0
sS'c:\\marmalade\\7.4\\s3e\\makefile_builder\\plugins\\SConsEmitter.pyc'
p280
F1409106506.0
sS'c:\\marmalade\\7.4\\s3e\\makefile_builder\\templates\\wp81_vcxproj.pyc'
p281
F1409106508.0
sS'c:\\marmalade\\7.4\\s3e\\makefile_builder\\plugins\\win8_utils.pyc'
p282
F1409106506.0
sS'c:\\marmalade\\7.4\\s3e\\makefile_builder\\templates\\template.opt'
p283
F1409103204.0
sS'c:\\marmalade\\7.4\\s3e\\makefile_builder\\plugins\\vc7_utils.pyc'
p284
F1409106506.0
sS'c:\\marmalade\\7.4\\s3e\\makefile_builder\\templates\\win32_dsp.pyc'
p285
F1409106506.0
sS'c:\\marmalade\\7.4\\s3e\\makefile_builder\\plugins\\s3e_make.pyc'
p286
F1409106506.0
sS'c:\\marmalade\\7.4\\s3e\\makefile_builder\\templates\\rvct_linker_script'
p287
F1409103204.0
sS'c:\\marmalade\\7.4\\s3e\\makefile_builder\\templates\\win8_csproj.pyc'
p288
F1409106508.0
sS'c:\\marmalade\\7.4\\s3e\\makefile_builder\\templates\\xcode.py'
p289
F1409103204.0
sS'c:\\marmalade\\7.4\\s3e\\makefile_builder\\templates\\ws8_vcxproj.pyc'
p290
F1409106508.0
sS'c:\\marmalade\\7.4\\s3e\\makefile_builder\\templates\\wp81_csproj.pyc'
p291
F1409106508.0
sS'c:\\marmalade\\7.4\\s3e\\makefile_builder\\mkb_upstream.pyc'
p292
F1409106506.0
sS'c:\\marmalade\\7.4\\s3e\\makefile_builder\\templates\\win32_vcxproj.pyc'
p293
F1409106506.0
sS'c:\\marmalade\\7.4\\s3e\\makefile_builder\\templates\\ws8_csproj.pyc'
p294
F1409106508.0
sS'c:\\marmalade\\7.4\\s3e\\makefile_builder\\docs\\parse_options.pyc'
p295
F1409106508.0
sS'c:\\marmalade\\7.4\\s3e\\makefile_builder\\templates\\Info.plist'
p296
F1409103204.0
sS'c:\\marmalade\\7.4\\s3e\\makefile_builder\\templates\\wp81_sln.pyc'
p297
F1409106508.0
sS'c:\\marmalade\\7.4\\s3e\\makefile_builder\\templates\\ws81_csproj_user.pyc'
p298
F1409106508.0
sS'c:\\marmalade\\7.4\\s3e\\makefile_builder\\templates\\ws81_vcxproj.pyc'
p299
F1409106508.0
sccopy_reg
_reconstructor
p300
(cmkb_main
MkbFile
p301
c__builtin__
object
p302
Ntp303
Rp304
(dp305
g5
(lp306
sS'target_name'
p307
S'MonkFlip'
p308
sS'current_file'
p309
g120
sS'package_path'
p310
(lp311
sS'post_build'
p312
(lp313
(lp314
S'c:/marmalade/7.4/s3e/tools'
p315
aS'C:\\Marmalade\\7.4\\s3e\\python\\python.exe .\\process_map.py "$(TargetPath)"'
p316
aa(S'c:\\marmalade\\7.4\\s3e\\bin'
p317
S'"s3e_plink" -l "$(TargetPath)" '
p318
g149
tp319
asS'librarys'
p320
(lp321
g300
(cmkb_main
Library
p322
g302
Ntp323
Rp324
(dp325
S'name'
p326
S'vc6_compat.lib'
p327
sS'expand_name'
p328
I00
sS'include_spec_rvct_objs'
p329
(lp330
sS'include_all_objs'
p331
I00
sS'share_arm'
p332
I00
sS'arch'
p333
S'x86'
p334
sS'nodebug'
p335
I00
sg36
Nsbag300
(g322
g302
Ntp336
Rp337
(dp338
g326
S'iw2d'
p339
sg328
I01
sg329
(lp340
sg331
Nsg332
Nsg333
Nsg335
I00
sg36
Nsbag300
(g322
g302
Ntp341
Rp342
(dp343
g326
S'ATI_Compress_MT_VC7.lib'
p344
sg328
I00
sg329
g340
sg331
Nsg332
Nsg333
S'x86'
p345
sg335
I00
sg36
Nsbag300
(g322
g302
Ntp346
Rp347
(dp348
g326
S'iwgx'
p349
sg328
I01
sg329
g340
sg331
Nsg332
Nsg333
Nsg335
I00
sg36
Nsbag300
(g322
g302
Ntp350
Rp351
(dp352
g326
S'iwgl'
p353
sg328
I01
sg329
g340
sg331
Nsg332
Nsg333
Nsg335
I00
sg36
Nsbag300
(g322
g302
Ntp354
Rp355
(dp356
g326
S'iwutil'
p357
sg328
I01
sg329
g340
sg331
Nsg332
Nsg333
Nsg335
I00
sg36
Nsbag300
(g322
g302
Ntp358
Rp359
(dp360
g326
S'jpeg'
p361
sg328
I01
sg329
g340
sg331
Nsg332
Nsg333
Nsg335
I00
sg36
Nsbag300
(g322
g302
Ntp362
Rp363
(dp364
g326
S'z'
p365
sg328
I01
sg329
g340
sg331
Nsg332
Nsg333
Nsg335
I00
sg36
Nsbag300
(g322
g302
Ntp366
Rp367
(dp368
g326
S'png'
p369
sg328
I01
sg329
g340
sg331
Nsg332
Nsg333
Nsg335
I00
sg36
Nsbag300
(g322
g302
Ntp370
Rp371
(dp372
g326
S'iwgeom'
p373
sg328
I01
sg329
g340
sg331
Nsg332
Nsg333
Nsg335
I00
sg36
Nsbag300
(g322
g302
Ntp374
Rp375
(dp376
g326
S'iwresmanager'
p377
sg328
I01
sg329
g340
sg331
Nsg332
Nsg333
Nsg335
I00
sg36
Nsbag300
(g322
g302
Ntp378
Rp379
(dp380
g326
S'iwgxfont'
p381
sg328
I01
sg329
g340
sg331
Nsg332
Nsg333
Nsg335
I00
sg36
Nsbag300
(g322
g302
Ntp382
Rp383
(dp384
g326
S'tiniconv'
p385
sg328
I01
sg329
g340
sg331
Nsg332
Nsg333
Nsg335
I00
sg36
Nsbag300
(g322
g302
Ntp386
Rp387
(dp388
g326
S's3e_cpp'
p389
sg328
I01
sg329
g330
sg331
I00
sg332
I00
sg333
Nsg335
I00
sg36
Nsbag300
(g322
g302
Ntp390
Rp391
(dp392
g326
S's3e'
p393
sg328
I01
sg329
(lp394
S'iwcrt.o'
p395
asg331
I00
sg332
I00
sg333
Nsg335
I00
sg36
Nsbag300
(g322
g302
Ntp396
Rp397
(dp398
g326
g48
sg328
I01
sg329
g330
sg331
I00
sg332
I00
sg333
S'x86'
p399
sg335
I01
sg36
Nsbag300
(g322
g302
Ntp400
Rp401
(dp402
g326
g48
sg328
I01
sg329
g330
sg331
I00
sg332
I00
sg333
S'!x86'
p403
sg335
I01
sg36
Nsbag300
(g322
g302
Ntp404
Rp405
(dp406
g326
S'stdc++'
p407
sg328
I00
sg329
g330
sg331
I00
sg332
I00
sg333
S'mips'
p408
sg335
I00
sg36
Nsbag300
(g322
g302
Ntp409
Rp410
(dp411
g326
S'c'
p412
sg328
I00
sg329
g330
sg331
I00
sg332
I00
sg333
S'mips'
p413
sg335
I00
sg36
Nsbag300
(g322
g302
Ntp414
Rp415
(dp416
g326
S'm'
p417
sg328
I00
sg329
g330
sg331
I00
sg332
I00
sg333
S'mips'
p418
sg335
I00
sg36
Nsbag300
(g322
g302
Ntp419
Rp420
(dp421
g326
S'gcc'
p422
sg328
I00
sg329
g330
sg331
I00
sg332
I00
sg333
S'mips'
p423
sg335
I00
sg36
Nsbag300
(g322
g302
Ntp424
Rp425
(dp426
g326
S'stdc++'
p427
sg328
I00
sg329
g330
sg331
I00
sg332
I00
sg333
S'gcc_x86_android'
p428
sg335
I00
sg36
Nsbag300
(g322
g302
Ntp429
Rp430
(dp431
g326
g412
sg328
I00
sg329
g330
sg331
I00
sg332
I00
sg333
S'gcc_x86_android'
p432
sg335
I00
sg36
Nsbag300
(g322
g302
Ntp433
Rp434
(dp435
g326
g417
sg328
I00
sg329
g330
sg331
I00
sg332
I00
sg333
S'gcc_x86_android'
p436
sg335
I00
sg36
Nsbag300
(g322
g302
Ntp437
Rp438
(dp439
g326
g422
sg328
I00
sg329
g330
sg331
I00
sg332
I00
sg333
S'gcc_x86_android'
p440
sg335
I00
sg36
NsbasS'library_paths'
p441
(lp442
g300
(cmkb_main
LibraryPath
p443
g302
Ntp444
Rp445
(dp446
S'expand_path'
p447
I01
sg326
S'c:/marmalade/7.4/modules/iw2d'
p448
sbag300
(g443
g302
Ntp449
Rp450
(dp451
g447
I00
sg326
S'c:/marmalade/7.4/modules/iwgx/atitools'
p452
sbag300
(g443
g302
Ntp453
Rp454
(dp455
g447
I01
sg326
S'c:/marmalade/7.4/modules/iwgx'
p456
sbag300
(g443
g302
Ntp457
Rp458
(dp459
g447
I01
sg326
S'c:/marmalade/7.4/modules/iwgl'
p460
sbag300
(g443
g302
Ntp461
Rp462
(dp463
g447
I01
sg326
S'c:/marmalade/7.4/modules/iwutil'
p464
sbag300
(g443
g302
Ntp465
Rp466
(dp467
g447
I01
sg326
S'c:/marmalade/7.4/modules/third_party/libjpeg'
p468
sbag300
(g443
g302
Ntp469
Rp470
(dp471
g447
I01
sg326
S'c:/marmalade/7.4/modules/third_party/zlib'
p472
sbag300
(g443
g302
Ntp473
Rp474
(dp475
g447
I01
sg326
S'c:/marmalade/7.4/modules/third_party/libpng'
p476
sbag300
(g443
g302
Ntp477
Rp478
(dp479
g447
I01
sg326
S'c:/marmalade/7.4/modules/iwgeom'
p480
sbag300
(g443
g302
Ntp481
Rp482
(dp483
g447
I01
sg326
S'c:/marmalade/7.4/modules/iwresmanager'
p484
sbag300
(g443
g302
Ntp485
Rp486
(dp487
g447
I01
sg326
S'c:/marmalade/7.4/modules/iwgxfont'
p488
sbag300
(g443
g302
Ntp489
Rp490
(dp491
g447
I01
sg326
S'c:/marmalade/7.4/modules/third_party/tiniconv'
p492
sbag300
(g443
g302
Ntp493
Rp494
(dp495
g447
I01
sg326
S'c:/marmalade/7.4/s3e'
p496
sbasS'macros'
p497
(dp498
S'IW_USE_CALLSTACK'
p499
NsS'IW_SDK'
p500
NsS'I3D_PLATFORM_S3E'
p501
NsS'__S3E__'
p502
NsS'IW_MKF_LIBJPEG'
p503
NsS'I3D_OS_S3E'
p504
NsS'IW_MKF_PVRTEXTOOL'
p505
NsS'IW_MKF_TINICONV'
p506
NsS'IW_APP_VERSION'
p507
S'"1.0"'
p508
sS'IW_MKF_IWRESMANAGER'
p509
NsS'IW_MKF_IWUTIL'
p510
NsS'IW_PLATFORM_S3E'
p511
NsS'IW_ASSERTION_CHANNEL_2D'
p512
S'1'
p513
sS'IW_APP_NAME'
p514
S'"MonkFlip"'
p515
sS'IW_MKF_IWGXFONT'
p516
NsS'IW_MKF_ZLIB'
p517
NsS'IW_MKF_IWGX'
p518
NsS'IW_USE_ASSERTIONS'
p519
NsS'_CRT_SECURE_NO_DEPRECATE'
p520
NsS'IW_MKF_IWGL'
p521
NsS'IW_MKF_LIBPNG'
p522
NsS'IW_DEBUG'
p523
NsS'IW_USE_TRACING'
p524
NsS'IW_TRACE_CHANNEL_PVRTEXTOOL'
p525
g513
sS'S3E_INCLUDE_LEGACY'
p526
NsS'IW_TRACE_CHANNEL_PVRTEXTOOL_VERBOSE'
p527
S'2'
p528
sS'IW_MKF_IW2D'
p529
NsS'IW_MKF_IWGEOM'
p530
NsS'IW_ASSERTION_CHANNEL_PVRTEXTOOL'
p531
g513
ssS'done_warnings'
p532
(dp533
sS'subprojects'
p534
(dp535
g174
S'zlib'
p536
sg172
S'libjpeg'
p537
sg179
S'tiniconv'
p538
sg169
S'iwgx'
p539
sg175
S'iwgeom'
p540
sg171
S'iwutil'
p541
sg168
S'iw2d'
p542
sg178
S'iwgxfont'
p543
sg176
S'iwresmanager'
p544
sg173
S'libpng'
p545
sg170
S'iwgl'
p546
sg177
S'PVRTexTool'
p547
ssS'deployments'
p548
(dp549
S'Default'
p550
g300
(cdeployment
Deployment
p551
g302
Ntp552
Rp553
(dp554
S'got_version'
p555
I0
sS'assets'
p556
g550
sS'mkb'
p557
g304
sS'target'
p558
Nsg333
(lp559
sS'options'
p560
(dp561
S'iphone-link-lib'
p562
(lp563
sS'game-icf'
p564
NsS'android-tm'
p565
NsS'winmobile-icon32'
p566
NsS'ws8-logo-image150x150'
p567
NsS'wp81-logo-image150x150'
p568
NsS'ws81-product-version'
p569
NsS'osx-ext-dll'
p570
(lp571
S'c:/marmalade/7.4/extensions/pvrtextool/lib/osx/libPVRTexTool.dylib'
p572
asS'iphone-provisioning-profile'
p573
NsS'ws8-splash-screen-image620x300'
p574
NsS'wp81-extra-pri'
p575
(lp576
sS'ws8-ext-capabilities'
p577
(lp578
sS'android-icon-hdpi'
p579
NsS'brew-icon-large'
p580
NsS'iphone-splash-full-orient'
p581
NsS'wp8-tile-fliptemplate-supports-large'
p582
NsS'iphone-show-status-bar'
p583
NsS'roku-requires-mkv'
p584
NsS'long-caption'
p585
NsS'android-pkgname'
p586
NsS'wp81-publisher-display-name'
p587
NsS'blackberry-permissions-read-device-identifying-information'
p588
NsS'ws81-certificate-end-date'
p589
NsS'psp-dlgcontentid'
p590
NsS'iphone-minimum-ios-version'
p591
NsS'target-folder'
p592
NsS'tizen-dist1-CA-path'
p593
NsS'symbian-icon2-format'
p594
NsS'tizen-author-key'
p595
NsS'firefoxos-icon-128X128'
p596
NsS'iphone-region'
p597
NsS'uiq3-icon3-mask'
p598
NsS'brew-encoding'
p599
NsS'android-x86'
p600
NsS'nds-initialcode'
p601
NsS'iphone-persistent-wifi'
p602
NsS'psp-snd0'
p603
NsS'roku-icon-focus-hd'
p604
NsS'winmobile-install-folder'
p605
NsS'android-external-res'
p606
(lp607
sS'ws8-product-version'
p608
NsS'brew-priviledges'
p609
NsS'iphone-icon-ipad-search'
p610
NsS'iphone-icon-ipad'
p611
NsS'roku-hidden'
p612
NsS'psp-titlename'
p613
NsS'wp81-product-version'
p614
NsS'symbian-icon1-mask'
p615
NsS'psp-parentallevel'
p616
NsS'splashscreen-use-all'
p617
NsS'wp8-author'
p618
NsS'symbian-disable-ecompxl'
p619
NsS'splashscreen-auto-onblack'
p620
NsS'win32-ext-dll'
p621
(lp622
S'c:/marmalade/7.4/extensions/pvrtextool/lib/win32/PVRTexTool.dll'
p623
asS'iphone-development-key'
p624
NsS'winmobile-icon48'
p625
NsS'android-unsigned'
p626
NsS'osx-appstore-category'
p627
NsS'version-revision'
p628
NsS'roku-icon-focus-sd'
p629
NsS'android-keystore'
p630
NsS'winmobile-png90'
p631
NsS'iphone-icon-ipad-high-res'
p632
NsS'iphone-disable-ipad'
p633
NsS'wp8-product-id'
p634
NsS'ws81-splash-screen-background'
p635
NsS'wp8-ext-capabilities'
p636
(lp637
sS'iphone-ipad-only'
p638
NsS'symbian-icon1-mask-black'
p639
NsS'iphone-nosign'
p640
NsS'iphone-bundle-localisations'
p641
NsS'winmobile-png60'
p642
NsS'blackberry-permissions-access-shared'
p643
NsS'blackberry-author'
p644
NsS'android-icon-xxxhdpi'
p645
NsS'olddeploytoolstyle'
p646
NsS'android_icon_gallery'
p647
NsS'wp81-splash-screen-background'
p648
NsS'winmobile-cab-compress'
p649
NsS'iphone-info-plist'
p650
NsS'ws81-ext-managed-dll'
p651
(lp652
sS'playbook-cskpass'
p653
NsS'ws8-distribution-pfx-password'
p654
NsS'symbian-key'
p655
NsS'app-icf'
p656
NsS'blackberry-storepass'
p657
NsS'wp8-tile-fliptemplate-back-title'
p658
NsS'brew-compress-loader'
p659
NsS'win32-pref-windowposy'
p660
NsS'win32-pref-windowposx'
p661
NsS'roku-requires-audiometadata'
p662
NsS'wp8-exclude-low-mem'
p663
NsS'iphone-icon-ipad-search-high-res'
p664
NsS'iphone-link-libdir'
p665
(lp666
sS'wp81-ext-capabilities'
p667
(lp668
sS'blackberry-permissions-read-geolocation'
p669
NsS'ws81-ext-device-capabilities'
p670
(lp671
sS'tizen-signed'
p672
NsS'android-extra-application-manifest'
p673
(lp674
sS'ws8-ext-native-dll'
p675
(lp676
sS'symbian-icon2-mask'
p677
NsS'iphone-backgroundmode-audio'
p678
NsS'webos-memory'
p679
NsS'android-keypass'
p680
NsS'name'
p681
NsS'uiq3-icon2-format'
p682
NsS'roku-splash-screen-sd'
p683
NsS'auto-derbh'
p684
NsS'roku-icon-side-sd'
p685
NsS'android-external-assets'
p686
(lp687
sS'nds-publicsavedatasize'
p688
NsS'splashscreen'
p689
NsS'brew-mif'
p690
NsS'iphone-icon-settings-high-res'
p691
NsS'android-manifest'
p692
NsS'ws81-splash-screen-image620x300'
p693
NsS'wp81-product-name'
p694
NsS's3e-compression'
p695
NsS'tizen-author-password'
p696
NsS'wp8-tile-fliptemplate-back-content'
p697
NsS'blackberry-extra-descriptor'
p698
(lp699
sS'symbian-icon1'
p700
NsS'symbian-icon2'
p701
NsS'android-extra-styles-file'
p702
NsS'wp81-publisher-id'
p703
NsS'nds-bannertitle-jp'
p704
NsS'wp81-logo-image44x44'
p705
NsS'osx-sign-for-store'
p706
NsS'symbian7-uid'
p707
NsS'wp8-tile-fliptemplate-large-back-content'
p708
NsS'wp81-phone-publisher-id'
p709
NsS'nds-bannertitle-cn'
p710
NsS'iphone-distribution-key'
p711
NsS'android-icon-gallery'
p712
NsS'blackberry-keystore'
p713
NsS'ws8-extra-res'
p714
(lp715
sS'caption'
p716
NsS'android-extra-manifest'
p717
(lp718
sS'wp81-ext-sdk-ref'
p719
(lp720
sS'android-icon-xxhdpi'
p721
NsS'version-minor'
p722
NsS'iphone-link-libdirs'
p723
(lp724
sS'iphone-icon-large'
p725
NsS'symbian-keypwd'
p726
NsS'symbian8-uid'
p727
NsS'symbian-cert-key'
p728
NsS'winmobile-ampd-part-number'
p729
NsS'arch'
p730
NsS'nds-romheadertemplate'
p731
NsS'webos-icon'
p732
NsS'wp81-ext-device-capabilities'
p733
(lp734
sS'psp-dlgprotectdocument'
p735
NsS'ws8-splash-screen-background'
p736
NsS'android-icon-mdpi'
p737
NsS'nds-icon'
p738
NsS'ws8-custom-manifest-fill'
p739
NsS'iphone-development-cert'
p740
NsS'blackberry-phone-icon'
p741
NsS'iphone-enable-4inch-retina'
p742
NsS'ws8-custom-manifest'
p743
NsS'version-major'
p744
NsS'wp8-genre-isgame'
p745
NsS'uiq3-uid'
p746
NsS'iphone-splash-retina-generate'
p747
NsS'tizen-hw-acceleration'
p748
NsS'iphone_bundle_localisations'
p749
NsS'tizen-dist1-key'
p750
NsS'wp81-custom-manifest-fill'
p751
NsS'wp8-custom-manifest'
p752
NsS'nds-bannertitle-ge'
p753
NsS'iphone-sign-for-distribution'
p754
NsS'wp8-tile-fliptemplate-medium-back-image'
p755
NsS'wp8-publisher-id'
p756
NsS'icon'
p757
NsS'wp8-exclude-wxga'
p758
NsS'wp81-identity-name'
p759
NsS'uiq3-icon2-mask'
p760
NsS'iphone-splashscreen-portrait'
p761
NsS'iphone-icon-high-res'
p762
NsS'ws81-distribution-pfx-password'
p763
NsS'playbook-author'
p764
NsS'android-icon-xhdpi'
p765
NsS'linux-ext-lib'
p766
(lp767
sS'blackberry-permissions-access-internet'
p768
NsS'wp8-exclude-720p'
p769
NsS'lgtv-use-drm'
p770
NsS'symbian-platsecflags'
p771
NsS'ws8-description'
p772
NsS'blackberry-playbook-icon'
p773
NsS'copyright'
p774
NsS'win32-gles-directory'
p775
NsS'version'
p776
NsS'ws81-logo-image150x150'
p777
NsS'osx-signing-identity-app'
p778
NsS'tizen-project-url'
p779
NsS'symbian-icon-svg'
p780
NsS'android-aliasname'
p781
NsS'psp-dlgmanual'
p782
NsS'brew-uid'
p783
NsS'symbian-locationsupport'
p784
NsS'wp81-logo-image50x50'
p785
NsS'ws8-ext-managed-dll'
p786
(lp787
sS'nds-bannertitle-it'
p788
NsS'ws81-custom-manifest-fill'
p789
NsS'ws8-ext-sdk-manifest-part'
p790
(lp791
sS'uiq3-icon1-mask'
p792
NsS'winmobile-icon16'
p793
NsS'ws8-product-name'
p794
NsS'blackberry-cskpass'
p795
NsS'winmobile-start-menu-folder'
p796
NsS'brew-clsid'
p797
NsS'roku-requires-bluetooth'
p798
NsS'ws8-ext-device-capabilities'
p799
(lp800
sS'blackberry-permissions-use-camera'
p801
NsS'ws81-extra-pri'
p802
(lp803
sS'iphone-prerendered-icon'
p804
NsS'iphone-appid'
p805
NsS'ws8-identity-name'
p806
NsS'tizen-dist2-CA-path'
p807
NsS'android-external-jars'
p808
(lp809
sS'winmobile-icon64'
p810
NsS'blackberry-permissions-post-notification'
p811
NsS'winmobile-setup-dll'
p812
NsS'firefoxos-manifest'
p813
NsS'win8-winrt-extra-res'
p814
(lp815
sS'wp81-ext-sdk-manifest-part'
p816
(lp817
sS'symbian9-uid'
p818
NsS'iphone-icon-ipad-ios7'
p819
NsS'winmobile-trace-file'
p820
NsS'roku-splash-color'
p821
NsS'psp-appversion'
p822
NsS'ws8-publisher-id'
p823
NsS'android-supports-gl-texture'
p824
(lp825
sS'winmobile-png45'
p826
NsS'wp81-extra-res'
p827
(lp828
sS'android-storepass'
p829
NsS'osx-signing-identity-inst'
p830
NsS'android-custom-activity'
p831
NsS'psp-discversion'
p832
NsS'wp81-ext-managed-dll'
p833
(lp834
sS'psp-copyright'
p835
NsS'embed-icf'
p836
NsS'tizen-manifest'
p837
NsS'osx-icon'
p838
NsS'webos-appinfo'
p839
NsS'psp-dlghealthwarning'
p840
NsS'webos-appid'
p841
NsS'roku-icon-side-hd'
p842
NsS'iphone-icon-ipad-search-high-res-ios7'
p843
NsS'ws81-ext-sdk-manifest-part'
p844
(lp845
sS'loader_name_prefix'
p846
NsS'nds-titlename'
p847
NsS'ws81-logo-image50x50'
p848
NsS'wp81-custom-manifest'
p849
NsS'osx-entitlements-plist'
p850
NsS'psp-dlgicon0'
p851
NsS'winmobile-nouninstall'
p852
NsS'psp-discid'
p853
NsS'tizen-dist2-password'
p854
NsS'ws8-ext-sdk-ref'
p855
(lp856
sS'iphone-extra-string'
p857
(lp858
sS'version-string'
p859
NsS'iphone-icon-high-res-ios7'
p860
NsS'blackberry-permissions-record-audio'
p861
NsS'ws8-certificate-end-date'
p862
NsS'tizen-so'
p863
(lp864
sS'wp8-tile-fliptemplate-small-image'
p865
NsS'playbook-authorid'
p866
NsS'iphone-signing-identity'
p867
NsS'roku-persist-quota'
p868
NsS'nds-bannertitle-fr'
p869
NsS'ws8-distribution-pfx'
p870
NsS'ws8-publisher-display-name'
p871
NsS'brew-icon-small'
p872
NsS'psp-dlgpic2'
p873
NsS'psp-dlgpic0'
p874
NsS'psp-pic0'
p875
NsS'psp-pic1'
p876
NsS'win32-pref-windowtitle'
p877
NsS'psp-icon0'
p878
NsS'psp-icon1'
p879
NsS'ws81-identity-name'
p880
NsS'winmobile-icon'
p881
NsS'iphone-no-splash'
p882
NsS'iphone-splash'
p883
NsS'iphone-app-fonts'
p884
NsS'wp8-ext-native-dll'
p885
(lp886
sS'wp81-splash-screen-image480x800'
p887
NsS'ws81-distribution-cer'
p888
NsS'uiq3-icon2'
p889
NsS'uiq3-icon3'
p890
NsS'uiq3-icon1'
p891
NsS'uiq3-icon1-format'
p892
NsS'ws8-logo-image50x50'
p893
NsS'symbian-icon2-mask-black'
p894
NsS'symbian-run-on-install'
p895
NsS'wp81-description'
p896
NsS'ws81-publisher-display-name'
p897
NsS'firefoxos-xulrunner'
p898
NsS'symbian-soundrecordsupport'
p899
NsS'nds-bannertitle-sp'
p900
NsS'psp-producer'
p901
NsS'iphone-apple-wwdr-cert'
p902
NsS'android-icon-nonstandard'
p903
NsS'win32-pref-processtitle'
p904
NsS'nds-bannertitle-hn'
p905
NsS'tizen-dist2-key'
p906
NsS'brew-depends'
p907
NsS'ws81-custom-manifest'
p908
NsS'iphone-icon-ipad-search-ios7'
p909
NsS'brew-icon-medium'
p910
NsS'iphone-bundle-url-name'
p911
NsS'wp8-tile-fliptemplate-large-front-image'
p912
NsS'tizen-dist2-CA-root-path'
p913
NsS'ws81-description'
p914
NsS'uiq3-icon3-format'
p915
NsS'ws81-logo-image30x30'
p916
NsS'win8-phone-extra-res'
p917
(lp918
sS'iphone-signing-host'
p919
NsS'tizen-icon'
p920
NsS'osx-info-plist'
p921
NsS'symbian-icon1-format'
p922
NsS'win8-store-extra-res'
p923
(lp924
sS'blackberry-authorid'
p925
NsS'ws81-publisher-id'
p926
NsS'ws81-distribution-pfx'
p927
NsS'wp8-description'
p928
NsS'iphone-link-opts'
p929
(lp930
sS'ws81-ext-sdk-ref'
p931
(lp932
sS'roku-splash-min-time'
p933
NsS'wp8-tile-fliptemplate-medium-front-image'
p934
NsS'provider'
p935
NsS'playbook-keystore'
p936
NsS'tizen-appid'
p937
NsS'wp8-extra-res'
p938
(lp939
sS'symbian-osexecsupport'
p940
NsS'android-install-location'
p941
NsS'nds-privatesavedatasize'
p942
NsS'playbook-storepass'
p943
NsS'android-icon-ldpi'
p944
NsS'manufacturer'
p945
NsS'itunes-artwork'
p946
NsS'iphone-extra-sections'
p947
NsS'ws81-product-name'
p948
NsS'ws81-ext-native-dll'
p949
(lp950
sS'ws8-extra-pri'
p951
(lp952
sS'win32-icon'
p953
NsS'ws8-logo-image30x30'
p954
NsS'wp8-ext-managed-dll'
p955
(lp956
sS'iphone-splashscreen-landscape'
p957
NsS'symbian-maxheapsize'
p958
NsS'nds-makercode'
p959
NsS'priv-sign-key'
p960
NsS'networking'
p961
NsS'android-icon'
p962
NsS'iphone-icon-settings'
p963
NsS'wp81-phone-product-id'
p964
NsS'firefoxos-icon-60X60'
p965
NsS'iphone-distribution-cert'
p966
NsS'android_extra_strings'
p967
NsS'nds-bannertitle-en'
p968
NsS'wp8-tile-fliptemplate-title'
p969
NsS'android-so'
p970
(lp971
sS'wp8-higher-mem'
p972
NsS'wp8-ext-sdk-ref'
p973
(lp974
sS'roku-splash-screen-hd'
p975
NsS'iphone-bundle-url-schemes'
p976
NsS'roku-screensaver-private'
p977
NsS'osx-extra-res'
p978
(lp979
sS'ws81-extra-res'
p980
(lp981
sS'playbook-icon'
p982
NsS'uid'
p983
NsS'pkguid-as-uid'
p984
NsS'wp81-ext-native-dll'
p985
(lp986
sS'tizen-dist1-password'
p987
NsS'roku-screensaver-title'
p988
NsS'osx-minimum-osx-version'
p989
NsS'symbian-cert'
p990
NsS'iphone-icon'
p991
NsS'ws81-ext-capabilities'
p992
(lp993
sS'ws8-distribution-cer'
p994
NsS'playbook-access-shared'
p995
NsS'iphone-icon-ipad-high-res-ios7'
p996
NsS'iphone-link-libs'
p997
(lp998
sS'wp8-exclude-wvga'
p999
NsS'assets'
p1000
NsS'wp8-tile-fliptemplate-large-back-image'
p1001
NsS'wp8-custom-manifest-fill'
p1002
NsS'pub-sign-key'
p1003
NsS'android-extra-strings'
p1004
NsS'tizen-author-CA-path'
p1005
Nssg326
g550
sbssS'platform'
p1006
S'S3E'
p1007
sg63
S'1.0'
p1008
sS'arcade_platform'
p1009
g4
sS'extensions'
p1010
(dp1011
sS'source_groups_tree'
p1012
(dp1013
S'(libpng)'
p1014
(dp1015
S'h'
p1016
(dp1017
S'c:/marmalade/7.4/modules/third_party/libpng/h/png.h'
p1018
(lp1019
I1
a(dp1020
asS'c:/marmalade/7.4/modules/third_party/libpng/h/pngconf.h'
p1021
(lp1022
I1
ag1020
assS'c:/marmalade/7.4/modules/third_party/libpng/libpng.mkf'
p1023
(lp1024
I1
a(dp1025
assS'(libjpeg)'
p1026
(dp1027
g1016
(dp1028
S'c:/marmalade/7.4/modules/third_party/libjpeg/h/jerror.h'
p1029
(lp1030
I1
a(dp1031
asS'c:/marmalade/7.4/modules/third_party/libjpeg/h/jmemsys.h'
p1032
(lp1033
I1
ag1031
asS'c:/marmalade/7.4/modules/third_party/libjpeg/h/jchuff.h'
p1034
(lp1035
I1
ag1031
asS'c:/marmalade/7.4/modules/third_party/libjpeg/h/jpeglib.h'
p1036
(lp1037
I1
ag1031
asS'c:/marmalade/7.4/modules/third_party/libjpeg/h/cdjpeg.h'
p1038
(lp1039
I1
ag1031
asS'c:/marmalade/7.4/modules/third_party/libjpeg/h/jinclude.h'
p1040
(lp1041
I1
ag1031
asS'c:/marmalade/7.4/modules/third_party/libjpeg/h/jconfig.h'
p1042
(lp1043
I1
ag1031
asS'c:/marmalade/7.4/modules/third_party/libjpeg/h/cderror.h'
p1044
(lp1045
I1
ag1031
asS'c:/marmalade/7.4/modules/third_party/libjpeg/h/jdct.h'
p1046
(lp1047
I1
ag1031
asS'c:/marmalade/7.4/modules/third_party/libjpeg/h/jversion.h'
p1048
(lp1049
I1
ag1031
asS'c:/marmalade/7.4/modules/third_party/libjpeg/h/transupp.h'
p1050
(lp1051
I1
ag1031
asS'c:/marmalade/7.4/modules/third_party/libjpeg/h/jdhuff.h'
p1052
(lp1053
I1
ag1031
asS'c:/marmalade/7.4/modules/third_party/libjpeg/h/jpegint.h'
p1054
(lp1055
I1
ag1031
asS'c:/marmalade/7.4/modules/third_party/libjpeg/h/jmorecfg.h'
p1056
(lp1057
I1
ag1031
assS'c:/marmalade/7.4/modules/third_party/libjpeg/libjpeg.mkf'
p1058
(lp1059
I1
a(dp1060
assS'(tiniconv)'
p1061
(dp1062
S'c:/marmalade/7.4/modules/third_party/tiniconv/source/tiniconv_int.h'
p1063
(lp1064
I1
a(dp1065
asS'c:/marmalade/7.4/modules/third_party/tiniconv/tiniconv.mkf'
p1066
(lp1067
I1
a(dp1068
asS'c:/marmalade/7.4/modules/third_party/tiniconv/source/tiniconv.h'
p1069
(lp1070
I1
ag1065
assS'Source'
p1071
(dp1072
S'c:/Users/YUSUKE-SATO/Documents/GitHub/MonkFlip/MonkFlip/source/Input.cpp'
p1073
(lp1074
I1
a(dp1075
asS'c:/Users/YUSUKE-SATO/Documents/GitHub/MonkFlip/MonkFlip/source/Main.cpp'
p1076
(lp1077
I1
ag1075
asS'c:/Users/YUSUKE-SATO/Documents/GitHub/MonkFlip/MonkFlip/source/Screen.cpp'
p1078
(lp1079
I1
ag1075
asS'c:/Users/YUSUKE-SATO/Documents/GitHub/MonkFlip/MonkFlip/source/Button.cpp'
p1080
(lp1081
I1
ag1075
asS'c:/Users/YUSUKE-SATO/Documents/GitHub/MonkFlip/MonkFlip/source/Screen.h'
p1082
(lp1083
I1
ag1075
asS'c:/Users/YUSUKE-SATO/Documents/GitHub/MonkFlip/MonkFlip/source/Sprite.cpp'
p1084
(lp1085
I1
ag1075
asS'c:/Users/YUSUKE-SATO/Documents/GitHub/MonkFlip/MonkFlip/source/Game.h'
p1086
(lp1087
I1
ag1075
asS'c:/Users/YUSUKE-SATO/Documents/GitHub/MonkFlip/MonkFlip/source/Main.h'
p1088
(lp1089
I1
ag1075
asS'c:/Users/YUSUKE-SATO/Documents/GitHub/MonkFlip/MonkFlip/source/Input.h'
p1090
(lp1091
I1
ag1075
asS'c:/Users/YUSUKE-SATO/Documents/GitHub/MonkFlip/MonkFlip/source/Game.cpp'
p1092
(lp1093
I1
ag1075
asS'c:/Users/YUSUKE-SATO/Documents/GitHub/MonkFlip/MonkFlip/source/Sprite.h'
p1094
(lp1095
I1
ag1075
asS'c:/Users/YUSUKE-SATO/Documents/GitHub/MonkFlip/MonkFlip/source/Button.h'
p1096
(lp1097
I1
ag1075
assS'Extensions'
p1098
(dp1099
S'PVRTexTool'
p1100
(dp1101
S'interface'
p1102
(dp1103
S'c:/marmalade/7.4/extensions/pvrtextool/interface/PVRTexTool_interface.cpp'
p1104
(lp1105
I1
a(dp1106
asS'c:/marmalade/7.4/extensions/pvrtextool/interface/PVRTexTool.defines.txt'
p1107
(lp1108
I1
ag1106
assS'c:/marmalade/7.4/extensions/pvrtextool/pvrtextool.mkf'
p1109
(lp1110
I1
a(dp1111
asS'c:/marmalade/7.4/extensions/pvrtextool/h/PVRTexTool.h'
p1112
(lp1113
I1
ag1106
asssS"'Marmalade Studio'"
p1114
(dp1115
S'iwgl'
p1116
(dp1117
S'c:/marmalade/7.4/modules/iwgl/iwgl.mkf'
p1118
(lp1119
I1
a(dp1120
asS'c:/marmalade/7.4/modules/iwgl/docs/iwgl.config.txt'
p1121
(lp1122
I1
a(dp1123
asS'c:/marmalade/7.4/modules/iwgl/h/IwGL.h'
p1124
(lp1125
I1
ag1123
asS'c:/marmalade/7.4/modules/iwgl/h/IwGLExt.h'
p1126
(lp1127
I1
ag1123
assS'iw2d'
p1128
(dp1129
S'c:/marmalade/7.4/modules/iw2d/docs/iw2d.config.txt'
p1130
(lp1131
I1
a(dp1132
asS'c:/marmalade/7.4/modules/iw2d/docs/iw2d_public.defines.txt'
p1133
(lp1134
I1
ag1132
asS'c:/marmalade/7.4/modules/iw2d/h/Iw2D.h'
p1135
(lp1136
I1
ag1132
asS'c:/marmalade/7.4/modules/iw2d/iw2d.mkf'
p1137
(lp1138
I1
a(dp1139
assS'iwgxfont'
p1140
(dp1141
S'c:/marmalade/7.4/modules/iwgxfont/docs/iwgxfont_public.defines.txt'
p1142
(lp1143
I1
a(dp1144
asS'c:/marmalade/7.4/modules/iwgxfont/h/IwGxFontGlyph.h'
p1145
(lp1146
I1
ag1144
asS'c:/marmalade/7.4/modules/iwgxfont/docs/iwgxfont.config.txt'
p1147
(lp1148
I1
ag1144
asS'c:/marmalade/7.4/modules/iwgxfont/h/IwGxFont.h'
p1149
(lp1150
I1
ag1144
asS'c:/marmalade/7.4/modules/iwgxfont/h/IwGxFontTypes.h'
p1151
(lp1152
I1
ag1144
asS'c:/marmalade/7.4/modules/iwgxfont/h/IwGxFontPreparedData.h'
p1153
(lp1154
I1
ag1144
asS'c:/marmalade/7.4/modules/iwgxfont/h/IwGxFontState.h'
p1155
(lp1156
I1
ag1144
asS'c:/marmalade/7.4/modules/iwgxfont/h/IwGxFontContainer.h'
p1157
(lp1158
I1
ag1144
asS'c:/marmalade/7.4/modules/iwgxfont/iwgxfont.mkf'
p1159
(lp1160
I1
a(dp1161
assS'iwgeom'
p1162
(dp1163
S'c:/marmalade/7.4/modules/iwgeom/docs/iwgeom.config.txt'
p1164
(lp1165
I1
a(dp1166
asS'c:/marmalade/7.4/modules/iwgeom/h/IwGeomFIntersect.h'
p1167
(lp1168
I1
ag1166
asS'c:/marmalade/7.4/modules/iwgeom/h/IwGeomMat2D.h.tpl'
p1169
(lp1170
I1
ag1166
asS'c:/marmalade/7.4/modules/iwgeom/iwgeom.mkf'
p1171
(lp1172
I1
a(dp1173
asS'c:/marmalade/7.4/modules/iwgeom/h/IwGeomVec.h.tpl'
p1174
(lp1175
I1
ag1166
asS'c:/marmalade/7.4/modules/iwgeom/h/IwGeomFSphere.h'
p1176
(lp1177
I1
ag1166
asS'c:/marmalade/7.4/modules/iwgeom/h/IwGeomFQuat.h'
p1178
(lp1179
I1
ag1166
asS'c:/marmalade/7.4/modules/iwgeom/h/IwGeomMenu.h'
p1180
(lp1181
I1
ag1166
asS'c:/marmalade/7.4/modules/iwgeom/h/IwGeomFMat2D.h'
p1182
(lp1183
I1
ag1166
asS'c:/marmalade/7.4/modules/iwgeom/h/IwGeomFVec4.h'
p1184
(lp1185
I1
ag1166
asS'c:/marmalade/7.4/modules/iwgeom/h/IwGeomQuat.h'
p1186
(lp1187
I1
ag1166
asS'c:/marmalade/7.4/modules/iwgeom/h/IwGeomFBBox.h'
p1188
(lp1189
I1
ag1166
asS'c:/marmalade/7.4/modules/iwgeom/h/IwGeomSVec4.h'
p1190
(lp1191
I1
ag1166
asS'c:/marmalade/7.4/modules/iwgeom/h/IwGeomFVec2.h'
p1192
(lp1193
I1
ag1166
asS'c:/marmalade/7.4/modules/iwgeom/h/IwGeomVec.h'
p1194
(lp1195
I1
ag1166
asS'c:/marmalade/7.4/modules/iwgeom/h/IwGeomPlane.h'
p1196
(lp1197
I1
ag1166
asS'c:/marmalade/7.4/modules/iwgeom/h/IwGeomQuat.h.tpl'
p1198
(lp1199
I1
ag1166
asS'c:/marmalade/7.4/modules/iwgeom/h/IwGeomSVec3.h'
p1200
(lp1201
I1
ag1166
asS'c:/marmalade/7.4/modules/iwgeom/h/IwGeomMat.h'
p1202
(lp1203
I1
ag1166
asS'c:/marmalade/7.4/modules/iwgeom/h/IwGeomVec3.h'
p1204
(lp1205
I1
ag1166
asS'c:/marmalade/7.4/modules/iwgeom/h/IwGeomVec2.h'
p1206
(lp1207
I1
ag1166
asS'c:/marmalade/7.4/modules/iwgeom/h/IwGeomLegacy.h'
p1208
(lp1209
I1
ag1166
asS'c:/marmalade/7.4/modules/iwgeom/h/IwGeomSQuat.h'
p1210
(lp1211
I1
ag1166
asS'c:/marmalade/7.4/modules/iwgeom/h/IwGeomCore.h'
p1212
(lp1213
I1
ag1166
asS'c:/marmalade/7.4/modules/iwgeom/h/IwGeomVec4.h'
p1214
(lp1215
I1
ag1166
asS'c:/marmalade/7.4/modules/iwgeom/h/IwGeomBBox.h'
p1216
(lp1217
I1
ag1166
asS'c:/marmalade/7.4/modules/iwgeom/h/IwGeomIntersect.h'
p1218
(lp1219
I1
ag1166
asS'c:/marmalade/7.4/modules/iwgeom/h/IwGeomSVec2.h'
p1220
(lp1221
I1
ag1166
asS'c:/marmalade/7.4/modules/iwgeom/h/IwGeomMat2D.h'
p1222
(lp1223
I1
ag1166
asS'c:/marmalade/7.4/modules/iwgeom/h/IwGeomSphere.h'
p1224
(lp1225
I1
ag1166
asS'c:/marmalade/7.4/modules/iwgeom/h/IwGeomFVec3.h'
p1226
(lp1227
I1
ag1166
asS'c:/marmalade/7.4/modules/iwgeom/h/IwGeom.h'
p1228
(lp1229
I1
ag1166
asS'c:/marmalade/7.4/modules/iwgeom/h/IwGeomMat.h.tpl'
p1230
(lp1231
I1
ag1166
asS'c:/marmalade/7.4/modules/iwgeom/h/IwGeomFPlane.h'
p1232
(lp1233
I1
ag1166
asS'c:/marmalade/7.4/modules/iwgeom/h/IwGeomFMat.h'
p1234
(lp1235
I1
ag1166
asS'c:/marmalade/7.4/modules/iwgeom/h/IwGeomSqrt.h'
p1236
(lp1237
I1
ag1166
assS'iwresmanager'
p1238
(dp1239
S'c:/marmalade/7.4/modules/iwresmanager/h/IwResHandlerITX.h'
p1240
(lp1241
I1
a(dp1242
asS'c:/marmalade/7.4/modules/iwresmanager/h/IwResGroup.h'
p1243
(lp1244
I1
ag1242
asS'c:/marmalade/7.4/modules/iwresmanager/h/IwResManager.h'
p1245
(lp1246
I1
ag1242
asS'c:/marmalade/7.4/modules/iwresmanager/h/IwResManagerClass.h'
p1247
(lp1248
I1
ag1242
asS'c:/marmalade/7.4/modules/iwresmanager/h/IwResSerialise.h'
p1249
(lp1250
I1
ag1242
asS'c:/marmalade/7.4/modules/iwresmanager/h/IwResHandlerGROUP.h'
p1251
(lp1252
I1
ag1242
asS'c:/marmalade/7.4/modules/iwresmanager/iwresmanager.mkf'
p1253
(lp1254
I1
a(dp1255
asS'c:/marmalade/7.4/modules/iwresmanager/h/IwResHandlerImage.h'
p1256
(lp1257
I1
ag1242
asS'c:/marmalade/7.4/modules/iwresmanager/h/IwResHandler.h'
p1258
(lp1259
I1
ag1242
asS'c:/marmalade/7.4/modules/iwresmanager/docs/iwresmanager.config.txt'
p1260
(lp1261
I1
ag1242
assS'iwgx'
p1262
(dp1263
S'c:/marmalade/7.4/modules/iwgx/h/IwDebugPrim.h'
p1264
(lp1265
I1
a(dp1266
asS'c:/marmalade/7.4/modules/iwgx/h/IwGxFuncTable.h'
p1267
(lp1268
I1
ag1266
asS'c:/marmalade/7.4/modules/iwgx/h/IwClip.inl'
p1269
(lp1270
I1
ag1266
asS'c:/marmalade/7.4/modules/iwgx/h/IwGxPrint.h'
p1271
(lp1272
I1
ag1266
asS'c:/marmalade/7.4/modules/iwgx/h/IwGx.h'
p1273
(lp1274
I1
ag1266
asS'c:/marmalade/7.4/modules/iwgx/h/IwTexture.h'
p1275
(lp1276
I1
ag1266
asS'c:/marmalade/7.4/modules/iwgx/h/IwFColour.h'
p1277
(lp1278
I1
ag1266
asS'c:/marmalade/7.4/modules/iwgx/h/IwColour.h'
p1279
(lp1280
I1
ag1266
asS'c:/marmalade/7.4/modules/iwgx/h/IwGxState.h'
p1281
(lp1282
I1
ag1266
asS'c:/marmalade/7.4/modules/iwgx/h/IwClip.h'
p1283
(lp1284
I1
ag1266
asS'c:/marmalade/7.4/modules/iwgx/h/IwTPage.h'
p1285
(lp1286
I1
ag1266
asS'c:/marmalade/7.4/modules/iwgx/h/IwMaterial.h'
p1287
(lp1288
I1
ag1266
asS'c:/marmalade/7.4/modules/iwgx/h/IwGxDebug.h'
p1289
(lp1290
I1
ag1266
asS'c:/marmalade/7.4/modules/iwgx/h/IwMatAnim.h'
p1291
(lp1292
I1
ag1266
asS'c:/marmalade/7.4/modules/iwgx/h/IwGxStream.h'
p1293
(lp1294
I1
ag1266
asS'c:/marmalade/7.4/modules/iwgx/h/IwResHandlerMTL.h'
p1295
(lp1296
I1
ag1266
asS'c:/marmalade/7.4/modules/iwgx/h/IwGxMetrics.h'
p1297
(lp1298
I1
ag1266
asS'c:/marmalade/7.4/modules/iwgx/h/IwGxError.h'
p1299
(lp1300
I1
ag1266
asS'c:/marmalade/7.4/modules/iwgx/docs/iwgx.config.txt'
p1301
(lp1302
I1
ag1266
asS'c:/marmalade/7.4/modules/iwgx/h/IwGxTransformSW.h'
p1303
(lp1304
I1
ag1266
asS'c:/marmalade/7.4/modules/iwgx/iwgx.mkf'
p1305
(lp1306
I1
a(dp1307
asS'c:/marmalade/7.4/modules/iwgx/docs/iwgx_public.defines.txt'
p1308
(lp1309
I1
ag1266
asS'c:/marmalade/7.4/modules/iwgx/h/IwGxShaderTechnique.h'
p1310
(lp1311
I1
ag1266
asS'c:/marmalade/7.4/modules/iwgx/h/IwGxTypes.h'
p1312
(lp1313
I1
ag1266
asS'c:/marmalade/7.4/modules/iwgx/h/IwGxSurface.h'
p1314
(lp1315
I1
ag1266
assS'iwutil'
p1316
(dp1317
S'c:/marmalade/7.4/modules/iwutil/h/IwTextParser.h'
p1318
(lp1319
I1
a(dp1320
asS'c:/marmalade/7.4/modules/iwutil/h/IwMenu.h'
p1321
(lp1322
I1
ag1320
asS'c:/marmalade/7.4/modules/iwutil/h/IwUtilInitTerm.h'
p1323
(lp1324
I1
ag1320
asS'c:/marmalade/7.4/modules/iwutil/h/IwCopyingPtr.h'
p1325
(lp1326
I1
ag1320
asS'c:/marmalade/7.4/modules/iwutil/h/IwDebug.h'
p1327
(lp1328
I1
ag1320
asS'c:/marmalade/7.4/modules/iwutil/h/IwDivTable.h'
p1329
(lp1330
I1
ag1320
asS'c:/marmalade/7.4/modules/iwutil/h/IwBuffer.h'
p1331
(lp1332
I1
ag1320
asS'c:/marmalade/7.4/modules/iwutil/h/IwRandom.h'
p1333
(lp1334
I1
ag1320
asS'c:/marmalade/7.4/modules/iwutil/h/IwResource.h'
p1335
(lp1336
I1
ag1320
asS'c:/marmalade/7.4/modules/iwutil/h/IwCore.h'
p1337
(lp1338
I1
ag1320
asS'c:/marmalade/7.4/modules/iwutil/h/IwTextParserITX.h'
p1339
(lp1340
I1
ag1320
asS'c:/marmalade/7.4/modules/iwutil/h/IwManaged.h'
p1341
(lp1342
I1
ag1320
asS'c:/marmalade/7.4/modules/iwutil/h/IwHashString.h'
p1343
(lp1344
I1
ag1320
asS'c:/marmalade/7.4/modules/iwutil/h/IwProfileMenu.h'
p1345
(lp1346
I1
ag1320
asS'c:/marmalade/7.4/modules/iwutil/h/IwManagedList.h'
p1347
(lp1348
I1
ag1320
asS'c:/marmalade/7.4/modules/iwutil/h/IwList.h'
p1349
(lp1350
I1
ag1320
asS'c:/marmalade/7.4/modules/iwutil/h/IwSerialise.h'
p1351
(lp1352
I1
ag1320
asS'c:/marmalade/7.4/modules/iwutil/h/IwClassFactory.h'
p1353
(lp1354
I1
ag1320
asS'c:/marmalade/7.4/modules/iwutil/h/IwTypes.h'
p1355
(lp1356
I1
ag1320
asS'c:/marmalade/7.4/modules/iwutil/h/IwAllocator.h'
p1357
(lp1358
I1
ag1320
asS'c:/marmalade/7.4/modules/iwutil/h/IwMemory.h'
p1359
(lp1360
I1
ag1320
asS'c:/marmalade/7.4/modules/iwutil/h/IwTextParseable.h'
p1361
(lp1362
I1
ag1320
asS'c:/marmalade/7.4/modules/iwutil/h/IwFile.h'
p1363
(lp1364
I1
ag1320
asS'c:/marmalade/7.4/modules/iwutil/h/IwRuntime.h'
p1365
(lp1366
I1
ag1320
asS'c:/marmalade/7.4/modules/iwutil/h/IwMemBucketHelpers.h'
p1367
(lp1368
I1
ag1320
asS'c:/marmalade/7.4/modules/iwutil/h/IwUncopyable.h'
p1369
(lp1370
I1
ag1320
asS'c:/marmalade/7.4/modules/iwutil/h/IwChar.h'
p1371
(lp1372
I1
ag1320
asS'c:/marmalade/7.4/modules/iwutil/h/IwOptimiseARM.h'
p1373
(lp1374
I1
ag1320
asS'c:/marmalade/7.4/modules/iwutil/h/IwImage.h'
p1375
(lp1376
I1
ag1320
asS'c:/marmalade/7.4/modules/iwutil/h/IwImageHelper.h'
p1377
(lp1378
I1
ag1320
asS'c:/marmalade/7.4/modules/iwutil/h/IwMemBucket.h'
p1379
(lp1380
I1
ag1320
asS'c:/marmalade/7.4/modules/iwutil/h/IwDivide.h'
p1381
(lp1382
I1
ag1320
asS'c:/marmalade/7.4/modules/iwutil/h/IwOptimiseSpeed.h'
p1383
(lp1384
I1
ag1320
asS'c:/marmalade/7.4/modules/iwutil/h/IwArray.h'
p1385
(lp1386
I1
ag1320
asS'c:/marmalade/7.4/modules/iwutil/docs/iwutil.config.txt'
p1387
(lp1388
I1
ag1320
asS'c:/marmalade/7.4/modules/iwutil/h/IwUTF8.h'
p1389
(lp1390
I1
ag1320
asS'c:/marmalade/7.4/modules/iwutil/h/IwEvent.h'
p1391
(lp1392
I1
ag1320
asS'c:/marmalade/7.4/modules/iwutil/h/IwMath.h'
p1393
(lp1394
I1
ag1320
asS'c:/marmalade/7.4/modules/iwutil/h/IwFibre.h'
p1395
(lp1396
I1
ag1320
asS'c:/marmalade/7.4/modules/iwutil/h/IwString.h'
p1397
(lp1398
I1
ag1320
asS'c:/marmalade/7.4/modules/iwutil/h/IwKeymap.h'
p1399
(lp1400
I1
ag1320
asS'c:/marmalade/7.4/modules/iwutil/iwutil.mkf'
p1401
(lp1402
I1
a(dp1403
asS'c:/marmalade/7.4/modules/iwutil/h/IwSingleton.h'
p1404
(lp1405
I1
ag1320
asS'c:/marmalade/7.4/modules/iwutil/h/IwAutoFile.h'
p1406
(lp1407
I1
ag1320
asS'c:/marmalade/7.4/modules/iwutil/h/IwOptimiseThumb.h'
p1408
(lp1409
I1
ag1320
asS'c:/marmalade/7.4/modules/iwutil/h/IwUtil.h'
p1410
(lp1411
I1
ag1320
asS'c:/marmalade/7.4/modules/iwutil/h/IwPath.h'
p1412
(lp1413
I1
ag1320
asS'c:/marmalade/7.4/modules/iwutil/h/IwMemManagerDL.h'
p1414
(lp1415
I1
ag1320
asS'c:/marmalade/7.4/modules/iwutil/h/IwVariableBitField.h'
p1416
(lp1417
I1
ag1320
asS'c:/marmalade/7.4/modules/iwutil/h/IwOptimiseSize.h'
p1418
(lp1419
I1
ag1320
asssS'(zlib)'
p1420
(dp1421
g1016
(dp1422
S'c:/marmalade/7.4/modules/third_party/zlib/h/zconf.h'
p1423
(lp1424
I1
a(dp1425
asS'c:/marmalade/7.4/modules/third_party/zlib/h/zlib.h'
p1426
(lp1427
I1
ag1425
assS'c:/marmalade/7.4/modules/third_party/zlib/zlib.mkf'
p1428
(lp1429
I1
a(dp1430
assS'Data'
p1431
(dp1432
S'c:/Users/YUSUKE-SATO/Documents/GitHub/MonkFlip/MonkFlip/data/MonkFlip.group'
p1433
(lp1434
I1
ag1075
asssS'files'
p1435
(dp1436
S'IwGxFontPreparedData.h'
p1437
g300
(cmkb_main
File
p1438
g302
Ntp1439
Rp1440
(dp1441
S'flags'
p1442
g1144
sS'group'
p1443
(lp1444
S"'Marmalade Studio'"
p1445
ag1140
asg326
g1153
sbsS'iterator'
p1446
g300
(g1438
g302
Ntp1447
Rp1448
(dp1449
g1442
(dp1450
sg1443
(lp1451
S"'Marmalade System (S3E)'"
p1452
aS'stdc headers'
p1453
aS'c++'
p1454
asg326
S'c:/marmalade/7.4/s3e/h/std/c++/iterator'
p1455
sbsS'IwGL.h'
p1456
g300
(g1438
g302
Ntp1457
Rp1458
(dp1459
g1442
g1123
sg1443
(lp1460
S"'Marmalade Studio'"
p1461
ag1116
asg326
g1124
sbsS's3e.h'
p1462
g300
(g1438
g302
Ntp1463
Rp1464
(dp1465
g1442
g1450
sg1443
(lp1466
g1452
asg326
S'c:/marmalade/7.4/s3e/h/s3e.h'
p1467
sbsS'errno.h'
p1468
g300
(g1438
g302
Ntp1469
Rp1470
(dp1471
g1442
g1450
sg1443
(lp1472
g1452
aS'stdc headers'
p1473
asg326
S'c:/marmalade/7.4/s3e/h/std/errno.h'
p1474
sbsS'IwSingleton.h'
p1475
g300
(g1438
g302
Ntp1476
Rp1477
(dp1478
g1442
g1320
sg1443
(lp1479
S"'Marmalade Studio'"
p1480
ag1316
asg326
g1404
sbsS'dlfcn.h'
p1481
g300
(g1438
g302
Ntp1482
Rp1483
(dp1484
g1442
g1450
sg1443
g1472
sg326
S'c:/marmalade/7.4/s3e/h/std/dlfcn.h'
p1485
sbsS'stdio_streambuf'
p1486
g300
(g1438
g302
Ntp1487
Rp1488
(dp1489
g1442
g1450
sg1443
g1451
sg326
S'c:/marmalade/7.4/s3e/h/std/c++/stdio_streambuf'
p1490
sbsS'sched.h'
p1491
g300
(g1438
g302
Ntp1492
Rp1493
(dp1494
g1442
g1450
sg1443
g1472
sg326
S'c:/marmalade/7.4/s3e/h/std/sched.h'
p1495
sbsS'IwGeomFMat2D.h'
p1496
g300
(g1438
g302
Ntp1497
Rp1498
(dp1499
g1442
g1166
sg1443
(lp1500
S"'Marmalade Studio'"
p1501
ag1162
asg326
g1182
sbsS's3eExt.h'
p1502
g300
(g1438
g302
Ntp1503
Rp1504
(dp1505
g1442
g1450
sg1443
g1466
sg326
S'c:/marmalade/7.4/s3e/h/s3eExt.h'
p1506
sbsS'grp.h'
p1507
g300
(g1438
g302
Ntp1508
Rp1509
(dp1510
g1442
g1450
sg1443
g1472
sg326
S'c:/marmalade/7.4/s3e/h/std/grp.h'
p1511
sbsS'list'
p1512
g300
(g1438
g302
Ntp1513
Rp1514
(dp1515
g1442
g1450
sg1443
g1451
sg326
S'c:/marmalade/7.4/s3e/h/std/c++/list'
p1516
sbsS'IwGeomMat.h.tpl'
p1517
g300
(g1438
g302
Ntp1518
Rp1519
(dp1520
g1442
g1166
sg1443
g1500
sg326
g1230
sbsS'istream'
p1521
g300
(g1438
g302
Ntp1522
Rp1523
(dp1524
g1442
g1450
sg1443
g1451
sg326
S'c:/marmalade/7.4/s3e/h/std/c++/istream'
p1525
sbsS'jpeglib.h'
p1526
g300
(g1438
g302
Ntp1527
Rp1528
(dp1529
g1442
g1031
sg1443
(lp1530
g1026
ag1016
asg326
g1036
sbsS'iw2d_public.defines.txt'
p1531
g300
(g1438
g302
Ntp1532
Rp1533
(dp1534
g1442
g1132
sg1443
(lp1535
S"'Marmalade Studio'"
p1536
ag1128
asg326
g1133
sbsS'iostream.h'
p1537
g300
(g1438
g302
Ntp1538
Rp1539
(dp1540
g1442
g1450
sg1443
g1451
sg326
S'c:/marmalade/7.4/s3e/h/std/c++/iostream.h'
p1541
sbsS'string'
p1542
g300
(g1438
g302
Ntp1543
Rp1544
(dp1545
g1442
g1450
sg1443
g1451
sg326
S'c:/marmalade/7.4/s3e/h/std/c++/string'
p1546
sbsS'IwMemory.h'
p1547
g300
(g1438
g302
Ntp1548
Rp1549
(dp1550
g1442
g1320
sg1443
g1479
sg326
g1359
sbsS'IwGeomPlane.h'
p1551
g300
(g1438
g302
Ntp1552
Rp1553
(dp1554
g1442
g1166
sg1443
g1500
sg326
g1196
sbsS'iw2d.config.txt'
p1555
g300
(g1438
g302
Ntp1556
Rp1557
(dp1558
g1442
g1132
sg1443
g1535
sg326
g1130
sbsS'iomanip'
p1559
g300
(g1438
g302
Ntp1560
Rp1561
(dp1562
g1442
g1450
sg1443
g1451
sg326
S'c:/marmalade/7.4/s3e/h/std/c++/iomanip'
p1563
sbsS'iwgeom.mkf'
p1564
g300
(g1438
g302
Ntp1565
Rp1566
(dp1567
g1442
g1173
sg1443
g1500
sg326
g1171
sbsS'IwGxError.h'
p1568
g300
(g1438
g302
Ntp1569
Rp1570
(dp1571
g1442
g1266
sg1443
(lp1572
S"'Marmalade Studio'"
p1573
ag1262
asg326
g1299
sbsS'IwGeom.h'
p1574
g300
(g1438
g302
Ntp1575
Rp1576
(dp1577
g1442
g1166
sg1443
g1500
sg326
g1228
sbsS'IwGeomVec4.h'
p1578
g300
(g1438
g302
Ntp1579
Rp1580
(dp1581
g1442
g1166
sg1443
g1500
sg326
g1214
sbsS'dir.h'
p1582
g300
(g1438
g302
Ntp1583
Rp1584
(dp1585
g1442
g1450
sg1443
(lp1586
g1452
aS'stdc headers'
p1587
aS'sys'
p1588
asg326
S'c:/marmalade/7.4/s3e/h/std/sys/dir.h'
p1589
sbsS'locale.h'
p1590
g300
(g1438
g302
Ntp1591
Rp1592
(dp1593
g1442
g1450
sg1443
g1472
sg326
S'c:/marmalade/7.4/s3e/h/std/locale.h'
p1594
sbsS'vector'
p1595
g300
(g1438
g302
Ntp1596
Rp1597
(dp1598
g1442
g1450
sg1443
g1451
sg326
S'c:/marmalade/7.4/s3e/h/std/c++/vector'
p1599
sbsS'IwManaged.h'
p1600
g300
(g1438
g302
Ntp1601
Rp1602
(dp1603
g1442
g1320
sg1443
g1479
sg326
g1341
sbsS's3eCompass.h'
p1604
g300
(g1438
g302
Ntp1605
Rp1606
(dp1607
g1442
g1450
sg1443
g1466
sg326
S'c:/marmalade/7.4/s3e/h/s3eCompass.h'
p1608
sbsS'cderror.h'
p1609
g300
(g1438
g302
Ntp1610
Rp1611
(dp1612
g1442
g1031
sg1443
g1530
sg326
g1044
sbsS'climits'
p1613
g300
(g1438
g302
Ntp1614
Rp1615
(dp1616
g1442
g1450
sg1443
g1451
sg326
S'c:/marmalade/7.4/s3e/h/std/c++/climits'
p1617
sbsS's3eVibra.h'
p1618
g300
(g1438
g302
Ntp1619
Rp1620
(dp1621
g1442
g1450
sg1443
g1466
sg326
S'c:/marmalade/7.4/s3e/h/s3eVibra.h'
p1622
sbsS'jversion.h'
p1623
g300
(g1438
g302
Ntp1624
Rp1625
(dp1626
g1442
g1031
sg1443
g1530
sg326
g1048
sbsS'fnmatch.h'
p1627
g300
(g1438
g302
Ntp1628
Rp1629
(dp1630
g1442
g1450
sg1443
g1472
sg326
S'c:/marmalade/7.4/s3e/h/std/fnmatch.h'
p1631
sbsS'IwGxState.h'
p1632
g300
(g1438
g302
Ntp1633
Rp1634
(dp1635
g1442
g1266
sg1443
g1572
sg326
g1281
sbsS's3eAudio.h'
p1636
g300
(g1438
g302
Ntp1637
Rp1638
(dp1639
g1442
g1450
sg1443
g1466
sg326
S'c:/marmalade/7.4/s3e/h/s3eAudio.h'
p1640
sbsS's3eSurface.h'
p1641
g300
(g1438
g302
Ntp1642
Rp1643
(dp1644
g1442
g1450
sg1443
g1466
sg326
S'c:/marmalade/7.4/s3e/h/s3eSurface.h'
p1645
sbsS'new'
p1646
g300
(g1438
g302
Ntp1647
Rp1648
(dp1649
g1442
g1450
sg1443
g1451
sg326
S'c:/marmalade/7.4/s3e/h/std/c++/new'
p1650
sbsS's3eWindow.h'
p1651
g300
(g1438
g302
Ntp1652
Rp1653
(dp1654
g1442
g1450
sg1443
(lp1655
g1452
aS'Extensions'
p1656
asg326
S'c:/marmalade/7.4/s3e/h/ext/s3eWindow.h'
p1657
sbsS'IwBuffer.h'
p1658
g300
(g1438
g302
Ntp1659
Rp1660
(dp1661
g1442
g1320
sg1443
g1479
sg326
g1331
sbsS'IwGeomQuat.h.tpl'
p1662
g300
(g1438
g302
Ntp1663
Rp1664
(dp1665
g1442
g1166
sg1443
g1500
sg326
g1198
sbsS's3eOSExec.h'
p1666
g300
(g1438
g302
Ntp1667
Rp1668
(dp1669
g1442
g1450
sg1443
g1655
sg326
S'c:/marmalade/7.4/s3e/h/ext/s3eOSExec.h'
p1670
sbsS'IwGxTransformSW.h'
p1671
g300
(g1438
g302
Ntp1672
Rp1673
(dp1674
g1442
g1266
sg1443
g1572
sg326
g1303
sbsS'IwGxMetrics.h'
p1675
g300
(g1438
g302
Ntp1676
Rp1677
(dp1678
g1442
g1266
sg1443
g1572
sg326
g1297
sbsS'iwgxfont.config.txt'
p1679
g300
(g1438
g302
Ntp1680
Rp1681
(dp1682
g1442
g1144
sg1443
g1444
sg326
g1147
sbsS'gl2platform.h'
p1683
g300
(g1438
g302
Ntp1684
Rp1685
(dp1686
g1442
g1450
sg1443
(lp1687
g1452
aS'GL'
p1688
aS'GLES 2.0'
p1689
asg326
S'c:/marmalade/7.4/s3e/h/GLES2/gl2platform.h'
p1690
sbsS'IwResManagerClass.h'
p1691
g300
(g1438
g302
Ntp1692
Rp1693
(dp1694
g1442
g1242
sg1443
(lp1695
g1114
ag1238
asg326
g1247
sbsS'queue'
p1696
g300
(g1438
g302
Ntp1697
Rp1698
(dp1699
g1442
g1450
sg1443
g1451
sg326
S'c:/marmalade/7.4/s3e/h/std/c++/queue'
p1700
sbsS'time_1.h'
p1701
g300
(g1438
g302
Ntp1702
Rp1703
(dp1704
g1442
g1450
sg1443
g1586
sg326
S'c:/marmalade/7.4/s3e/h/std/sys/time.h'
p1705
sbsS'Iw2D.h'
p1706
g300
(g1438
g302
Ntp1707
Rp1708
(dp1709
g1442
g1132
sg1443
g1535
sg326
g1135
sbsS'Input.cpp'
p1710
g300
(g1438
g302
Ntp1711
Rp1712
(dp1713
g1442
g1075
sg1443
(lp1714
g1071
asg326
g1073
sbsS'IwGeomVec2.h'
p1715
g300
(g1438
g302
Ntp1716
Rp1717
(dp1718
g1442
g1166
sg1443
g1500
sg326
g1206
sbsS's3eDevice.h'
p1719
g300
(g1438
g302
Ntp1720
Rp1721
(dp1722
g1442
g1450
sg1443
g1466
sg326
S'c:/marmalade/7.4/s3e/h/s3eDevice.h'
p1723
sbsS'malloc.h'
p1724
g300
(g1438
g302
Ntp1725
Rp1726
(dp1727
g1442
g1450
sg1443
g1472
sg326
S'c:/marmalade/7.4/s3e/h/std/malloc.h'
p1728
sbsS'stdarg.h'
p1729
g300
(g1438
g302
Ntp1730
Rp1731
(dp1732
g1442
g1450
sg1443
g1472
sg326
S'c:/marmalade/7.4/s3e/h/std/stdarg.h'
p1733
sbsS'IwGeomCore.h'
p1734
g300
(g1438
g302
Ntp1735
Rp1736
(dp1737
g1442
g1166
sg1443
g1500
sg326
g1212
sbsS'endian.h'
p1738
g300
(g1438
g302
Ntp1739
Rp1740
(dp1741
g1442
g1450
sg1443
g1472
sg326
S'c:/marmalade/7.4/s3e/h/std/endian.h'
p1742
sbsS'gl3ext.h'
p1743
g300
(g1438
g302
Ntp1744
Rp1745
(dp1746
g1442
g1450
sg1443
(lp1747
g1452
aS'GL'
p1748
aS'GLES 3.0'
p1749
asg326
S'c:/marmalade/7.4/s3e/h/GLES3/gl3ext.h'
p1750
sbsS'glob.h'
p1751
g300
(g1438
g302
Ntp1752
Rp1753
(dp1754
g1442
g1450
sg1443
g1472
sg326
S'c:/marmalade/7.4/s3e/h/std/glob.h'
p1755
sbsS'fstream'
p1756
g300
(g1438
g302
Ntp1757
Rp1758
(dp1759
g1442
g1450
sg1443
g1451
sg326
S'c:/marmalade/7.4/s3e/h/std/c++/fstream'
p1760
sbsS's3eCamera.h'
p1761
g300
(g1438
g302
Ntp1762
Rp1763
(dp1764
g1442
g1450
sg1443
g1466
sg326
S'c:/marmalade/7.4/s3e/h/s3eCamera.h'
p1765
sbsS'jconfig.h'
p1766
g300
(g1438
g302
Ntp1767
Rp1768
(dp1769
g1442
g1031
sg1443
g1530
sg326
g1042
sbsS'memory'
p1770
g300
(g1438
g302
Ntp1771
Rp1772
(dp1773
g1442
g1450
sg1443
g1451
sg326
S'c:/marmalade/7.4/s3e/h/std/c++/memory'
p1774
sbsS'egl.h'
p1775
g300
(g1438
g302
Ntp1776
Rp1777
(dp1778
g1442
g1450
sg1443
(lp1779
g1452
aS'GL'
p1780
aS'EGL'
p1781
asg326
S'c:/marmalade/7.4/s3e/h/EGL/egl.h'
p1782
sbsS'IwClip.inl'
p1783
g300
(g1438
g302
Ntp1784
Rp1785
(dp1786
g1442
g1266
sg1443
g1572
sg326
g1269
sbsS'IwMemManagerDL.h'
p1787
g300
(g1438
g302
Ntp1788
Rp1789
(dp1790
g1442
g1320
sg1443
g1479
sg326
g1414
sbsS'deque'
p1791
g300
(g1438
g302
Ntp1792
Rp1793
(dp1794
g1442
g1450
sg1443
g1451
sg326
S'c:/marmalade/7.4/s3e/h/std/c++/deque'
p1795
sbsS'IwString.h'
p1796
g300
(g1438
g302
Ntp1797
Rp1798
(dp1799
g1442
g1320
sg1443
g1479
sg326
g1397
sbsS'cwchar'
p1800
g300
(g1438
g302
Ntp1801
Rp1802
(dp1803
g1442
g1450
sg1443
g1451
sg326
S'c:/marmalade/7.4/s3e/h/std/c++/cwchar'
p1804
sbsS'iwutil.mkf'
p1805
g300
(g1438
g302
Ntp1806
Rp1807
(dp1808
g1442
g1403
sg1443
g1479
sg326
g1401
sbsS'csignal'
p1809
g300
(g1438
g302
Ntp1810
Rp1811
(dp1812
g1442
g1450
sg1443
g1451
sg326
S'c:/marmalade/7.4/s3e/h/std/c++/csignal'
p1813
sbsS'pthread_types.h'
p1814
g300
(g1438
g302
Ntp1815
Rp1816
(dp1817
g1442
g1450
sg1443
g1472
sg326
S'c:/marmalade/7.4/s3e/h/std/pthread_types.h'
p1818
sbsS'pthread_alloc'
p1819
g300
(g1438
g302
Ntp1820
Rp1821
(dp1822
g1442
g1450
sg1443
g1451
sg326
S'c:/marmalade/7.4/s3e/h/std/c++/pthread_alloc'
p1823
sbsS'getopt.h'
p1824
g300
(g1438
g302
Ntp1825
Rp1826
(dp1827
g1442
g1450
sg1443
g1472
sg326
S'c:/marmalade/7.4/s3e/h/std/getopt.h'
p1828
sbsS'IwOptimiseARM.h'
p1829
g300
(g1438
g302
Ntp1830
Rp1831
(dp1832
g1442
g1320
sg1443
g1479
sg326
g1373
sbsS'times.h'
p1833
g300
(g1438
g302
Ntp1834
Rp1835
(dp1836
g1442
g1450
sg1443
g1586
sg326
S'c:/marmalade/7.4/s3e/h/std/sys/times.h'
p1837
sbsS'IwGeomFSphere.h'
p1838
g300
(g1438
g302
Ntp1839
Rp1840
(dp1841
g1442
g1166
sg1443
g1500
sg326
g1176
sbsS'IwTypes.h'
p1842
g300
(g1438
g302
Ntp1843
Rp1844
(dp1845
g1442
g1320
sg1443
g1479
sg326
g1355
sbsS'unistd.h'
p1846
g300
(g1438
g302
Ntp1847
Rp1848
(dp1849
g1442
g1450
sg1443
g1472
sg326
S'c:/marmalade/7.4/s3e/h/std/unistd.h'
p1850
sbsS'Input.h'
p1851
g300
(g1438
g302
Ntp1852
Rp1853
(dp1854
g1442
g1075
sg1443
g1714
sg326
g1090
sbsS's3eCompression.h'
p1855
g300
(g1438
g302
Ntp1856
Rp1857
(dp1858
g1442
g1450
sg1443
g1466
sg326
S'c:/marmalade/7.4/s3e/h/s3eCompression.h'
p1859
sbsS'langinfo.h'
p1860
g300
(g1438
g302
Ntp1861
Rp1862
(dp1863
g1442
g1450
sg1443
g1472
sg326
S'c:/marmalade/7.4/s3e/h/std/langinfo.h'
p1864
sbsS's3edebugHeap.h'
p1865
g300
(g1438
g302
Ntp1866
Rp1867
(dp1868
g1442
g1450
sg1443
g1655
sg326
S'c:/marmalade/7.4/s3e/h/ext/s3edebugHeap.h'
p1869
sbsS'AirplayVersion.h'
p1870
g300
(g1438
g302
Ntp1871
Rp1872
(dp1873
g1442
g1450
sg1443
g1466
sg326
S'c:/marmalade/7.4/s3e/h/AirplayVersion.h'
p1874
sbsS'gl2extimg.h'
p1875
g300
(g1438
g302
Ntp1876
Rp1877
(dp1878
g1442
g1450
sg1443
g1687
sg326
S'c:/marmalade/7.4/s3e/h/GLES2/gl2extimg.h'
p1879
sbsS'app.config.txt'
p1880
g300
(g1438
g302
Ntp1881
Rp1882
(dp1883
g1442
(dp1884
sg1443
g4
sg326
S'c:/Users/YUSUKE-SATO/Documents/GitHub/MonkFlip/MonkFlip/data/app.config.txt'
p1885
sbsS'IwGeomSqrt.h'
p1886
g300
(g1438
g302
Ntp1887
Rp1888
(dp1889
g1442
g1166
sg1443
g1500
sg326
g1236
sbsS'tiniconv_int.h'
p1890
g300
(g1438
g302
Ntp1891
Rp1892
(dp1893
g1442
g1065
sg1443
(lp1894
g1061
asg326
g1063
sbsS'syslog.h'
p1895
g300
(g1438
g302
Ntp1896
Rp1897
(dp1898
g1442
g1450
sg1443
g1472
sg326
S'c:/marmalade/7.4/s3e/h/std/syslog.h'
p1899
sbsS'IwGxFontTypes.h'
p1900
g300
(g1438
g302
Ntp1901
Rp1902
(dp1903
g1442
g1144
sg1443
g1444
sg326
g1151
sbsS'IwGeomFIntersect.h'
p1904
g300
(g1438
g302
Ntp1905
Rp1906
(dp1907
g1442
g1166
sg1443
g1500
sg326
g1167
sbsS'hash_map'
p1908
g300
(g1438
g302
Ntp1909
Rp1910
(dp1911
g1442
g1450
sg1443
g1451
sg326
S'c:/marmalade/7.4/s3e/h/std/c++/hash_map'
p1912
sbsS's3e.mkf'
p1913
g300
(g1438
g302
Ntp1914
Rp1915
(dp1916
g1442
(dp1917
sg1443
g1466
sg326
S'c:/marmalade/7.4/s3e/s3e.mkf'
p1918
sbsS'IwGeomMat2D.h.tpl'
p1919
g300
(g1438
g302
Ntp1920
Rp1921
(dp1922
g1442
g1166
sg1443
g1500
sg326
g1169
sbsS's3eOSReadString.h'
p1923
g300
(g1438
g302
Ntp1924
Rp1925
(dp1926
g1442
g1450
sg1443
g1655
sg326
S'c:/marmalade/7.4/s3e/h/ext/s3eOSReadString.h'
p1927
sbsS'map'
p1928
g300
(g1438
g302
Ntp1929
Rp1930
(dp1931
g1442
g1450
sg1443
g1451
sg326
S'c:/marmalade/7.4/s3e/h/std/c++/map'
p1932
sbsS'IwOptimiseSpeed.h'
p1933
g300
(g1438
g302
Ntp1934
Rp1935
(dp1936
g1442
g1320
sg1443
g1479
sg326
g1383
sbsS'msl_string.h'
p1937
g300
(g1438
g302
Ntp1938
Rp1939
(dp1940
g1442
g1450
sg1443
g1451
sg326
S'c:/marmalade/7.4/s3e/h/std/c++/msl_string.h'
p1941
sbsS'select.h'
p1942
g300
(g1438
g302
Ntp1943
Rp1944
(dp1945
g1442
g1450
sg1443
g1586
sg326
S'c:/marmalade/7.4/s3e/h/std/sys/select.h'
p1946
sbsS'zlib.mkf'
p1947
g300
(g1438
g302
Ntp1948
Rp1949
(dp1950
g1442
g1430
sg1443
(lp1951
g1420
asg326
g1428
sbsS'signal.h'
p1952
g300
(g1438
g302
Ntp1953
Rp1954
(dp1955
g1442
g1450
sg1443
g1472
sg326
S'c:/marmalade/7.4/s3e/h/std/signal.h'
p1956
sbsS'sigcontext.h'
p1957
g300
(g1438
g302
Ntp1958
Rp1959
(dp1960
g1442
g1450
sg1443
g1472
sg326
S'c:/marmalade/7.4/s3e/h/std/sigcontext.h'
p1961
sbsS'libpng.mkf'
p1962
g300
(g1438
g302
Ntp1963
Rp1964
(dp1965
g1442
g1025
sg1443
(lp1966
g1014
asg326
g1023
sbsS's3eClipboard.h'
p1967
g300
(g1438
g302
Ntp1968
Rp1969
(dp1970
g1442
g1450
sg1443
g1466
sg326
S'c:/marmalade/7.4/s3e/h/s3eClipboard.h'
p1971
sbsS'IwGxFuncTable.h'
p1972
g300
(g1438
g302
Ntp1973
Rp1974
(dp1975
g1442
g1266
sg1443
g1572
sg326
g1267
sbsS'IwResHandlerGROUP.h'
p1976
g300
(g1438
g302
Ntp1977
Rp1978
(dp1979
g1442
g1242
sg1443
g1695
sg326
g1251
sbsS's3eDebug.h'
p1980
g300
(g1438
g302
Ntp1981
Rp1982
(dp1983
g1442
g1450
sg1443
g1466
sg326
S'c:/marmalade/7.4/s3e/h/s3eDebug.h'
p1984
sbsS'socket.h'
p1985
g300
(g1438
g302
Ntp1986
Rp1987
(dp1988
g1442
g1450
sg1443
g1586
sg326
S'c:/marmalade/7.4/s3e/h/std/sys/socket.h'
p1989
sbsS'glext.h'
p1990
g300
(g1438
g302
Ntp1991
Rp1992
(dp1993
g1442
g1450
sg1443
(lp1994
g1452
aS'GL'
p1995
aS'GLES 1.x'
p1996
asg326
S'c:/marmalade/7.4/s3e/h/GLES/glext.h'
p1997
sbsS'typeinfo.h'
p1998
g300
(g1438
g302
Ntp1999
Rp2000
(dp2001
g1442
g1450
sg1443
g1451
sg326
S'c:/marmalade/7.4/s3e/h/std/c++/typeinfo.h'
p2002
sbsS'typeinfo'
p2003
g300
(g1438
g302
Ntp2004
Rp2005
(dp2006
g1442
g1450
sg1443
g1451
sg326
S'c:/marmalade/7.4/s3e/h/std/c++/typeinfo'
p2007
sbsS'fstream.h'
p2008
g300
(g1438
g302
Ntp2009
Rp2010
(dp2011
g1442
g1450
sg1443
g1451
sg326
S'c:/marmalade/7.4/s3e/h/std/c++/fstream.h'
p2012
sbsS's3ePointer.h'
p2013
g300
(g1438
g302
Ntp2014
Rp2015
(dp2016
g1442
g1450
sg1443
g1466
sg326
S'c:/marmalade/7.4/s3e/h/s3ePointer.h'
p2017
sbsS'IwMemBucket.h'
p2018
g300
(g1438
g302
Ntp2019
Rp2020
(dp2021
g1442
g1320
sg1443
g1479
sg326
g1379
sbsS'PVRTexTool.h'
p2022
g300
(g1438
g302
Ntp2023
Rp2024
(dp2025
g1442
g1106
sg1443
(lp2026
g1098
ag1100
asg326
g1112
sbsS's3eGL.h'
p2027
g300
(g1438
g302
Ntp2028
Rp2029
(dp2030
g1442
g1450
sg1443
g1466
sg326
S'c:/marmalade/7.4/s3e/h/s3eGL.h'
p2031
sbsS'IwGeomFVec2.h'
p2032
g300
(g1438
g302
Ntp2033
Rp2034
(dp2035
g1442
g1166
sg1443
g1500
sg326
g1192
sbsS'IwGeomSVec4.h'
p2036
g300
(g1438
g302
Ntp2037
Rp2038
(dp2039
g1442
g1166
sg1443
g1500
sg326
g1190
sbsS'poll.h'
p2040
g300
(g1438
g302
Ntp2041
Rp2042
(dp2043
g1442
g1450
sg1443
g1472
sg326
S'c:/marmalade/7.4/s3e/h/std/poll.h'
p2044
sbsS'IwMatAnim.h'
p2045
g300
(g1438
g302
Ntp2046
Rp2047
(dp2048
g1442
g1266
sg1443
g1572
sg326
g1291
sbsS'PVRTexTool.defines.txt'
p2049
g300
(g1438
g302
Ntp2050
Rp2051
(dp2052
g1442
g1106
sg1443
(lp2053
g1098
ag1100
ag1102
asg326
g1107
sbsS'IwGx.h'
p2054
g300
(g1438
g302
Ntp2055
Rp2056
(dp2057
g1442
g1266
sg1443
g1572
sg326
g1273
sbsS'valarray'
p2058
g300
(g1438
g302
Ntp2059
Rp2060
(dp2061
g1442
g1450
sg1443
g1451
sg326
S'c:/marmalade/7.4/s3e/h/std/c++/valarray'
p2062
sbsS'iosfwd'
p2063
g300
(g1438
g302
Ntp2064
Rp2065
(dp2066
g1442
g1450
sg1443
g1451
sg326
S'c:/marmalade/7.4/s3e/h/std/c++/iosfwd'
p2067
sbsS'gl2.h'
p2068
g300
(g1438
g302
Ntp2069
Rp2070
(dp2071
g1442
g1450
sg1443
g1687
sg326
S'c:/marmalade/7.4/s3e/h/GLES2/gl2.h'
p2072
sbsS'jpegint.h'
p2073
g300
(g1438
g302
Ntp2074
Rp2075
(dp2076
g1442
g1031
sg1443
g1530
sg326
g1054
sbsS'stdiostream.h'
p2077
g300
(g1438
g302
Ntp2078
Rp2079
(dp2080
g1442
g1450
sg1443
g1451
sg326
S'c:/marmalade/7.4/s3e/h/std/c++/stdiostream.h'
p2081
sbsS'mem.h'
p2082
g300
(g1438
g302
Ntp2083
Rp2084
(dp2085
g1442
g1450
sg1443
g1451
sg326
S'c:/marmalade/7.4/s3e/h/std/c++/mem.h'
p2086
sbsS'jerror.h'
p2087
g300
(g1438
g302
Ntp2088
Rp2089
(dp2090
g1442
g1031
sg1443
g1530
sg326
g1029
sbsS'zconf.h'
p2091
g300
(g1438
g302
Ntp2092
Rp2093
(dp2094
g1442
g1425
sg1443
(lp2095
g1420
ag1016
asg326
g1423
sbsS's3e.config.txt'
p2096
g300
(g1438
g302
Ntp2097
Rp2098
(dp2099
g1442
g1450
sg1443
g1466
sg326
S'c:/marmalade/7.4/s3e/s3e.config.txt'
p2100
sbsS'numeric'
p2101
g300
(g1438
g302
Ntp2102
Rp2103
(dp2104
g1442
g1450
sg1443
g1451
sg326
S'c:/marmalade/7.4/s3e/h/std/c++/numeric'
p2105
sbsS'utime.h'
p2106
g300
(g1438
g302
Ntp2107
Rp2108
(dp2109
g1442
g1450
sg1443
g1472
sg326
S'c:/marmalade/7.4/s3e/h/std/utime.h'
p2110
sbsS'jdhuff.h'
p2111
g300
(g1438
g302
Ntp2112
Rp2113
(dp2114
g1442
g1031
sg1443
g1530
sg326
g1052
sbsS'IwGxStream.h'
p2115
g300
(g1438
g302
Ntp2116
Rp2117
(dp2118
g1442
g1266
sg1443
g1572
sg326
g1293
sbsS'IwImage.h'
p2119
g300
(g1438
g302
Ntp2120
Rp2121
(dp2122
g1442
g1320
sg1443
g1479
sg326
g1375
sbsS's3eImagePicker.h'
p2123
g300
(g1438
g302
Ntp2124
Rp2125
(dp2126
g1442
g1450
sg1443
g1655
sg326
S'c:/marmalade/7.4/s3e/h/ext/s3eImagePicker.h'
p2127
sbsS'IwTextParserITX.h'
p2128
g300
(g1438
g302
Ntp2129
Rp2130
(dp2131
g1442
g1320
sg1443
g1479
sg326
g1339
sbsS'stdlib.h'
p2132
g300
(g1438
g302
Ntp2133
Rp2134
(dp2135
g1442
g1450
sg1443
g1472
sg326
S'c:/marmalade/7.4/s3e/h/std/stdlib.h'
p2136
sbsS'IwCopyingPtr.h'
p2137
g300
(g1438
g302
Ntp2138
Rp2139
(dp2140
g1442
g1320
sg1443
g1479
sg326
g1325
sbsS'iostream'
p2141
g300
(g1438
g302
Ntp2142
Rp2143
(dp2144
g1442
g1450
sg1443
g1451
sg326
S'c:/marmalade/7.4/s3e/h/std/c++/iostream'
p2145
sbsS'png.h'
p2146
g300
(g1438
g302
Ntp2147
Rp2148
(dp2149
g1442
g1020
sg1443
(lp2150
g1014
ag1016
asg326
g1018
sbsS'stddef.h'
p2151
g300
(g1438
g302
Ntp2152
Rp2153
(dp2154
g1442
g1450
sg1443
g1472
sg326
S'c:/marmalade/7.4/s3e/h/std/stddef.h'
p2155
sbsS'setjmp_win32.h'
p2156
g300
(g1438
g302
Ntp2157
Rp2158
(dp2159
g1442
g1450
sg1443
g1472
sg326
S'c:/marmalade/7.4/s3e/h/std/setjmp_win32.h'
p2160
sbsS'IwGxPrint.h'
p2161
g300
(g1438
g302
Ntp2162
Rp2163
(dp2164
g1442
g1266
sg1443
g1572
sg326
g1271
sbsS'iwgx_public.defines.txt'
p2165
g300
(g1438
g302
Ntp2166
Rp2167
(dp2168
g1442
g1266
sg1443
g1572
sg326
g1308
sbsS'streambuf.h'
p2169
g300
(g1438
g302
Ntp2170
Rp2171
(dp2172
g1442
g1450
sg1443
g1451
sg326
S'c:/marmalade/7.4/s3e/h/std/c++/streambuf.h'
p2173
sbsS'IwGeomFPlane.h'
p2174
g300
(g1438
g302
Ntp2175
Rp2176
(dp2177
g1442
g1166
sg1443
g1500
sg326
g1232
sbsS'wchar.h'
p2178
g300
(g1438
g302
Ntp2179
Rp2180
(dp2181
g1442
g1450
sg1443
g1472
sg326
S'c:/marmalade/7.4/s3e/h/std/wchar.h'
p2182
sbsS's3eCameraCapture.h'
p2183
g300
(g1438
g302
Ntp2184
Rp2185
(dp2186
g1442
g1450
sg1443
g1655
sg326
S'c:/marmalade/7.4/s3e/h/ext/s3eCameraCapture.h'
p2187
sbsS'eglext.h'
p2188
g300
(g1438
g302
Ntp2189
Rp2190
(dp2191
g1442
g1450
sg1443
g1779
sg326
S'c:/marmalade/7.4/s3e/h/EGL/eglext.h'
p2192
sbsS'IwResHandlerImage.h'
p2193
g300
(g1438
g302
Ntp2194
Rp2195
(dp2196
g1442
g1242
sg1443
g1695
sg326
g1256
sbsS'Sprite.cpp'
p2197
g300
(g1438
g302
Ntp2198
Rp2199
(dp2200
g1442
g1075
sg1443
g1714
sg326
g1084
sbsS'strstream.h'
p2201
g300
(g1438
g302
Ntp2202
Rp2203
(dp2204
g1442
g1450
sg1443
g1451
sg326
S'c:/marmalade/7.4/s3e/h/std/c++/strstream.h'
p2205
sbsS'tiniconv.h'
p2206
g300
(g1438
g302
Ntp2207
Rp2208
(dp2209
g1442
g1065
sg1443
g1894
sg326
g1069
sbsS'IwGLExt.h'
p2210
g300
(g1438
g302
Ntp2211
Rp2212
(dp2213
g1442
g1123
sg1443
g1460
sg326
g1126
sbsS'app.icf'
p2214
g300
(g1438
g302
Ntp2215
Rp2216
(dp2217
g1442
(dp2218
sg1443
g4
sg326
S'c:/Users/YUSUKE-SATO/Documents/GitHub/MonkFlip/MonkFlip/data/app.icf'
p2219
sbsS'IwClassFactory.h'
p2220
g300
(g1438
g302
Ntp2221
Rp2222
(dp2223
g1442
g1320
sg1443
g1479
sg326
g1353
sbsS'file.h'
p2224
g300
(g1438
g302
Ntp2225
Rp2226
(dp2227
g1442
g1450
sg1443
g1586
sg326
S'c:/marmalade/7.4/s3e/h/std/sys/file.h'
p2228
sbsS'cstring'
p2229
g300
(g1438
g302
Ntp2230
Rp2231
(dp2232
g1442
g1450
sg1443
g1451
sg326
S'c:/marmalade/7.4/s3e/h/std/c++/cstring'
p2233
sbsS'iwutil.config.txt'
p2234
g300
(g1438
g302
Ntp2235
Rp2236
(dp2237
g1442
g1320
sg1443
g1479
sg326
g1387
sbsS's3eSMS.h'
p2238
g300
(g1438
g302
Ntp2239
Rp2240
(dp2241
g1442
g1450
sg1443
g1655
sg326
S'c:/marmalade/7.4/s3e/h/ext/s3eSMS.h'
p2242
sbsS'limits.h'
p2243
g300
(g1438
g302
Ntp2244
Rp2245
(dp2246
g1442
g1450
sg1443
g1472
sg326
S'c:/marmalade/7.4/s3e/h/std/limits.h'
p2247
sbsS'iwgl.config.txt'
p2248
g300
(g1438
g302
Ntp2249
Rp2250
(dp2251
g1442
g1123
sg1443
g1460
sg326
g1121
sbsS'IwMaterial.h'
p2252
g300
(g1438
g302
Ntp2253
Rp2254
(dp2255
g1442
g1266
sg1443
g1572
sg326
g1287
sbsS'PVRTexTool_interface.cpp'
p2256
g300
(g1438
g302
Ntp2257
Rp2258
(dp2259
g1442
g1106
sg1443
g2053
sg326
g1104
sbsS'IwGxSurface.h'
p2260
g300
(g1438
g302
Ntp2261
Rp2262
(dp2263
g1442
g1266
sg1443
g1572
sg326
g1314
sbsS's3eSocket.h'
p2264
g300
(g1438
g302
Ntp2265
Rp2266
(dp2267
g1442
g1450
sg1443
g1466
sg326
S'c:/marmalade/7.4/s3e/h/s3eSocket.h'
p2268
sbsS'IwAutoFile.h'
p2269
g300
(g1438
g302
Ntp2270
Rp2271
(dp2272
g1442
g1320
sg1443
g1479
sg326
g1406
sbsS'ipc.h'
p2273
g300
(g1438
g302
Ntp2274
Rp2275
(dp2276
g1442
g1450
sg1443
g1586
sg326
S'c:/marmalade/7.4/s3e/h/std/sys/ipc.h'
p2277
sbsS'poll_1.h'
p2278
g300
(g1438
g302
Ntp2279
Rp2280
(dp2281
g1442
g1450
sg1443
g1586
sg326
S'c:/marmalade/7.4/s3e/h/std/sys/poll.h'
p2282
sbsS's3eThread.h'
p2283
g300
(g1438
g302
Ntp2284
Rp2285
(dp2286
g1442
g1450
sg1443
g1466
sg326
S'c:/marmalade/7.4/s3e/h/s3eThread.h'
p2287
sbsS'ucontext.h'
p2288
g300
(g1438
g302
Ntp2289
Rp2290
(dp2291
g1442
g1450
sg1443
g1472
sg326
S'c:/marmalade/7.4/s3e/h/std/ucontext.h'
p2292
sbsS'time.h'
p2293
g300
(g1438
g302
Ntp2294
Rp2295
(dp2296
g1442
g1450
sg1443
g1472
sg326
S'c:/marmalade/7.4/s3e/h/std/time.h'
p2297
sbsS'jchuff.h'
p2298
g300
(g1438
g302
Ntp2299
Rp2300
(dp2301
g1442
g1031
sg1443
g1530
sg326
g1034
sbsS's3eSoundRecord.h'
p2302
g300
(g1438
g302
Ntp2303
Rp2304
(dp2305
g1442
g1450
sg1443
g1466
sg326
S'c:/marmalade/7.4/s3e/h/s3eSoundRecord.h'
p2306
sbsS'IwFibre.h'
p2307
g300
(g1438
g302
Ntp2308
Rp2309
(dp2310
g1442
g1320
sg1443
g1479
sg326
g1395
sbsS's3eVersion.h'
p2311
g300
(g1438
g302
Ntp2312
Rp2313
(dp2314
g1442
g1450
sg1443
g1466
sg326
S'c:/marmalade/7.4/s3e/h/s3eVersion.h'
p2315
sbsS'IwGxFontGlyph.h'
p2316
g300
(g1438
g302
Ntp2317
Rp2318
(dp2319
g1442
g1144
sg1443
g1444
sg326
g1145
sbsS's3eTypes.h'
p2320
g300
(g1438
g302
Ntp2321
Rp2322
(dp2323
g1442
g1450
sg1443
g1466
sg326
S'c:/marmalade/7.4/s3e/h/s3eTypes.h'
p2324
sbsS'signal_2.h'
p2325
g300
(g1438
g302
Ntp2326
Rp2327
(dp2328
g1442
g1450
sg1443
g1451
sg326
S'c:/marmalade/7.4/s3e/h/std/c++/signal.h'
p2329
sbsS'termios.h'
p2330
g300
(g1438
g302
Ntp2331
Rp2332
(dp2333
g1442
g1450
sg1443
g1472
sg326
S'c:/marmalade/7.4/s3e/h/std/termios.h'
p2334
sbsS'slist'
p2335
g300
(g1438
g302
Ntp2336
Rp2337
(dp2338
g1442
g1450
sg1443
g1451
sg326
S'c:/marmalade/7.4/s3e/h/std/c++/slist'
p2339
sbsS'cstdlib'
p2340
g300
(g1438
g302
Ntp2341
Rp2342
(dp2343
g1442
g1450
sg1443
g1451
sg326
S'c:/marmalade/7.4/s3e/h/std/c++/cstdlib'
p2344
sbsS's3eLocation.h'
p2345
g300
(g1438
g302
Ntp2346
Rp2347
(dp2348
g1442
g1450
sg1443
g1466
sg326
S'c:/marmalade/7.4/s3e/h/s3eLocation.h'
p2349
sbsS'IwMemBucketHelpers.h'
p2350
g300
(g1438
g302
Ntp2351
Rp2352
(dp2353
g1442
g1320
sg1443
g1479
sg326
g1367
sbsS's3eHash.h'
p2354
g300
(g1438
g302
Ntp2355
Rp2356
(dp2357
g1442
g1450
sg1443
g1466
sg326
S'c:/marmalade/7.4/s3e/h/s3eHash.h'
p2358
sbsS'IwGeomFMat.h'
p2359
g300
(g1438
g302
Ntp2360
Rp2361
(dp2362
g1442
g1166
sg1443
g1500
sg326
g1234
sbsS'type_traits.h'
p2363
g300
(g1438
g302
Ntp2364
Rp2365
(dp2366
g1442
g1450
sg1443
g1451
sg326
S'c:/marmalade/7.4/s3e/h/std/c++/type_traits.h'
p2367
sbsS'IwMenu.h'
p2368
g300
(g1438
g302
Ntp2369
Rp2370
(dp2371
g1442
g1320
sg1443
g1479
sg326
g1321
sbsS'IwResHandlerITX.h'
p2372
g300
(g1438
g302
Ntp2373
Rp2374
(dp2375
g1442
g1242
sg1443
g1695
sg326
g1240
sbsS'IwArray.h'
p2376
g300
(g1438
g302
Ntp2377
Rp2378
(dp2379
g1442
g1320
sg1443
g1479
sg326
g1385
sbsS'IwUTF8.h'
p2380
g300
(g1438
g302
Ntp2381
Rp2382
(dp2383
g1442
g1320
sg1443
g1479
sg326
g1389
sbsS'math_rvct.h'
p2384
g300
(g1438
g302
Ntp2385
Rp2386
(dp2387
g1442
g1450
sg1443
g1472
sg326
S'c:/marmalade/7.4/s3e/h/std/math_rvct.h'
p2388
sbsS'IwUtil.h'
p2389
g300
(g1438
g302
Ntp2390
Rp2391
(dp2392
g1442
g1320
sg1443
g1479
sg326
g1410
sbsS'IwFColour.h'
p2393
g300
(g1438
g302
Ntp2394
Rp2395
(dp2396
g1442
g1266
sg1443
g1572
sg326
g1277
sbsS'Screen.h'
p2397
g300
(g1438
g302
Ntp2398
Rp2399
(dp2400
g1442
g1075
sg1443
g1714
sg326
g1082
sbsS'wctype.h'
p2401
g300
(g1438
g302
Ntp2402
Rp2403
(dp2404
g1442
g1450
sg1443
g1472
sg326
S'c:/marmalade/7.4/s3e/h/std/wctype.h'
p2405
sbsS'Sprite.h'
p2406
g300
(g1438
g302
Ntp2407
Rp2408
(dp2409
g1442
g1075
sg1443
g1714
sg326
g1094
sbsS'cstddef'
p2410
g300
(g1438
g302
Ntp2411
Rp2412
(dp2413
g1442
g1450
sg1443
g1451
sg326
S'c:/marmalade/7.4/s3e/h/std/c++/cstddef'
p2414
sbsS'assert.h'
p2415
g300
(g1438
g302
Ntp2416
Rp2417
(dp2418
g1442
g1450
sg1443
g1472
sg326
S'c:/marmalade/7.4/s3e/h/std/assert.h'
p2419
sbsS'mman.h'
p2420
g300
(g1438
g302
Ntp2421
Rp2422
(dp2423
g1442
g1450
sg1443
g1586
sg326
S'c:/marmalade/7.4/s3e/h/std/sys/mman.h'
p2424
sbsS'IwRandom.h'
p2425
g300
(g1438
g302
Ntp2426
Rp2427
(dp2428
g1442
g1320
sg1443
g1479
sg326
g1333
sbsS'libgen.h'
p2429
g300
(g1438
g302
Ntp2430
Rp2431
(dp2432
g1442
g1450
sg1443
g1472
sg326
S'c:/marmalade/7.4/s3e/h/std/libgen.h'
p2433
sbsS'utsname.h'
p2434
g300
(g1438
g302
Ntp2435
Rp2436
(dp2437
g1442
g1450
sg1443
g1586
sg326
S'c:/marmalade/7.4/s3e/h/std/sys/utsname.h'
p2438
sbsS'wait.h'
p2439
g300
(g1438
g302
Ntp2440
Rp2441
(dp2442
g1442
g1450
sg1443
g1586
sg326
S'c:/marmalade/7.4/s3e/h/std/sys/wait.h'
p2443
sbsS'MonkFlip.group'
p2444
g300
(g1438
g302
Ntp2445
Rp2446
(dp2447
g1442
g1075
sg1443
(lp2448
g1431
asg326
g1433
sbsS'param.h'
p2449
g300
(g1438
g302
Ntp2450
Rp2451
(dp2452
g1442
g1450
sg1443
g1586
sg326
S'c:/marmalade/7.4/s3e/h/std/sys/param.h'
p2453
sbsS'IwDivide.h'
p2454
g300
(g1438
g302
Ntp2455
Rp2456
(dp2457
g1442
g1320
sg1443
g1479
sg326
g1381
sbsS'IwResManager.h'
p2458
g300
(g1438
g302
Ntp2459
Rp2460
(dp2461
g1442
g1242
sg1443
g1695
sg326
g1245
sbsS'ostream'
p2462
g300
(g1438
g302
Ntp2463
Rp2464
(dp2465
g1442
g1450
sg1443
g1451
sg326
S'c:/marmalade/7.4/s3e/h/std/c++/ostream'
p2466
sbsS'cwctype'
p2467
g300
(g1438
g302
Ntp2468
Rp2469
(dp2470
g1442
g1450
sg1443
g1451
sg326
S'c:/marmalade/7.4/s3e/h/std/c++/cwctype'
p2471
sbsS'set'
p2472
g300
(g1438
g302
Ntp2473
Rp2474
(dp2475
g1442
g1450
sg1443
g1451
sg326
S'c:/marmalade/7.4/s3e/h/std/c++/set'
p2476
sbsS'IwGeomSQuat.h'
p2477
g300
(g1438
g302
Ntp2478
Rp2479
(dp2480
g1442
g1166
sg1443
g1500
sg326
g1210
sbsS'locale'
p2481
g300
(g1438
g302
Ntp2482
Rp2483
(dp2484
g1442
g1450
sg1443
g1451
sg326
S'c:/marmalade/7.4/s3e/h/std/c++/locale'
p2485
sbsS'cstdio'
p2486
g300
(g1438
g302
Ntp2487
Rp2488
(dp2489
g1442
g1450
sg1443
g1451
sg326
S'c:/marmalade/7.4/s3e/h/std/c++/cstdio'
p2490
sbsS'cdjpeg.h'
p2491
g300
(g1438
g302
Ntp2492
Rp2493
(dp2494
g1442
g1031
sg1443
g1530
sg326
g1038
sbsS'IwList.h'
p2495
g300
(g1438
g302
Ntp2496
Rp2497
(dp2498
g1442
g1320
sg1443
g1479
sg326
g1349
sbsS'inttypes.h'
p2499
g300
(g1438
g302
Ntp2500
Rp2501
(dp2502
g1442
g1450
sg1443
g1472
sg326
S'c:/marmalade/7.4/s3e/h/std/inttypes.h'
p2503
sbsS'dirent.h'
p2504
g300
(g1438
g302
Ntp2505
Rp2506
(dp2507
g1442
g1450
sg1443
g1472
sg326
S'c:/marmalade/7.4/s3e/h/std/dirent.h'
p2508
sbsS'IwGeomVec3.h'
p2509
g300
(g1438
g302
Ntp2510
Rp2511
(dp2512
g1442
g1166
sg1443
g1500
sg326
g1204
sbsS'transupp.h'
p2513
g300
(g1438
g302
Ntp2514
Rp2515
(dp2516
g1442
g1031
sg1443
g1530
sg326
g1050
sbsS'IwMath.h'
p2517
g300
(g1438
g302
Ntp2518
Rp2519
(dp2520
g1442
g1320
sg1443
g1479
sg326
g1393
sbsS'Main.h'
p2521
g300
(g1438
g302
Ntp2522
Rp2523
(dp2524
g1442
g1075
sg1443
g1714
sg326
g1088
sbsS'IwGeomQuat.h'
p2525
g300
(g1438
g302
Ntp2526
Rp2527
(dp2528
g1442
g1166
sg1443
g1500
sg326
g1186
sbsS'glplatform.h'
p2529
g300
(g1438
g302
Ntp2530
Rp2531
(dp2532
g1442
g1450
sg1443
g1994
sg326
S'c:/marmalade/7.4/s3e/h/GLES/glplatform.h'
p2533
sbsS'bitset'
p2534
g300
(g1438
g302
Ntp2535
Rp2536
(dp2537
g1442
g1450
sg1443
g1451
sg326
S'c:/marmalade/7.4/s3e/h/std/c++/bitset'
p2538
sbsS'alloca.h'
p2539
g300
(g1438
g302
Ntp2540
Rp2541
(dp2542
g1442
g1450
sg1443
g1472
sg326
S'c:/marmalade/7.4/s3e/h/std/alloca.h'
p2543
sbsS'IwResHandler.h'
p2544
g300
(g1438
g302
Ntp2545
Rp2546
(dp2547
g1442
g1242
sg1443
g1695
sg326
g1258
sbsS'IwResHandlerMTL.h'
p2548
g300
(g1438
g302
Ntp2549
Rp2550
(dp2551
g1442
g1266
sg1443
g1572
sg326
g1295
sbsS'IwRuntime.h'
p2552
g300
(g1438
g302
Ntp2553
Rp2554
(dp2555
g1442
g1320
sg1443
g1479
sg326
g1365
sbsS'limits'
p2556
g300
(g1438
g302
Ntp2557
Rp2558
(dp2559
g1442
g1450
sg1443
g1451
sg326
S'c:/marmalade/7.4/s3e/h/std/c++/limits'
p2560
sbsS'IwGeomBBox.h'
p2561
g300
(g1438
g302
Ntp2562
Rp2563
(dp2564
g1442
g1166
sg1443
g1500
sg326
g1216
sbsS's3eContacts.h'
p2565
g300
(g1438
g302
Ntp2566
Rp2567
(dp2568
g1442
g1450
sg1443
g1466
sg326
S'c:/marmalade/7.4/s3e/h/s3eContacts.h'
p2569
sbsS's3eLicense.h'
p2570
g300
(g1438
g302
Ntp2571
Rp2572
(dp2573
g1442
g1450
sg1443
g1466
sg326
S'c:/marmalade/7.4/s3e/h/s3eLicense.h'
p2574
sbsS'iwgx.config.txt'
p2575
g300
(g1438
g302
Ntp2576
Rp2577
(dp2578
g1442
g1266
sg1443
g1572
sg326
g1301
sbsS'IwTextParser.h'
p2579
g300
(g1438
g302
Ntp2580
Rp2581
(dp2582
g1442
g1320
sg1443
g1479
sg326
g1318
sbsS's3eTimer.h'
p2583
g300
(g1438
g302
Ntp2584
Rp2585
(dp2586
g1442
g1450
sg1443
g1466
sg326
S'c:/marmalade/7.4/s3e/h/s3eTimer.h'
p2587
sbsS'IwGeomVec.h'
p2588
g300
(g1438
g302
Ntp2589
Rp2590
(dp2591
g1442
g1166
sg1443
g1500
sg326
g1194
sbsS'IwSerialise.h'
p2592
g300
(g1438
g302
Ntp2593
Rp2594
(dp2595
g1442
g1320
sg1443
g1479
sg326
g1351
sbsS'cstdarg'
p2596
g300
(g1438
g302
Ntp2597
Rp2598
(dp2599
g1442
g1450
sg1443
g1451
sg326
S'c:/marmalade/7.4/s3e/h/std/c++/cstdarg'
p2600
sbsS'gl2ext.h'
p2601
g300
(g1438
g302
Ntp2602
Rp2603
(dp2604
g1442
g1450
sg1443
g1687
sg326
S'c:/marmalade/7.4/s3e/h/GLES2/gl2ext.h'
p2605
sbsS'IwChar.h'
p2606
g300
(g1438
g302
Ntp2607
Rp2608
(dp2609
g1442
g1320
sg1443
g1479
sg326
g1371
sbsS's3eSound.h'
p2610
g300
(g1438
g302
Ntp2611
Rp2612
(dp2613
g1442
g1450
sg1443
g1466
sg326
S'c:/marmalade/7.4/s3e/h/s3eSound.h'
p2614
sbsS'IwVariableBitField.h'
p2615
g300
(g1438
g302
Ntp2616
Rp2617
(dp2618
g1442
g1320
sg1443
g1479
sg326
g1416
sbsS'exception.h'
p2619
g300
(g1438
g302
Ntp2620
Rp2621
(dp2622
g1442
g1450
sg1443
g1451
sg326
S'c:/marmalade/7.4/s3e/h/std/c++/exception.h'
p2623
sbsS'Button.cpp'
p2624
g300
(g1438
g302
Ntp2625
Rp2626
(dp2627
g1442
g1075
sg1443
g1714
sg326
g1080
sbsS'iwgeom.config.txt'
p2628
g300
(g1438
g302
Ntp2629
Rp2630
(dp2631
g1442
g1166
sg1443
g1500
sg326
g1164
sbsS'iwgx.mkf'
p2632
g300
(g1438
g302
Ntp2633
Rp2634
(dp2635
g1442
g1307
sg1443
g1572
sg326
g1305
sbsS'gl.h'
p2636
g300
(g1438
g302
Ntp2637
Rp2638
(dp2639
g1442
g1450
sg1443
g1994
sg326
S'c:/marmalade/7.4/s3e/h/GLES/gl.h'
p2640
sbsS'zlib.h'
p2641
g300
(g1438
g302
Ntp2642
Rp2643
(dp2644
g1442
g1425
sg1443
g2095
sg326
g1426
sbsS'temp_defines_release.h'
p2645
g300
(g1438
g302
Ntp2646
Rp2647
(dp2648
g1442
(lp2649
sg1443
(lp2650
S"'generated files'"
p2651
asg326
S'c:/Users/YUSUKE-SATO/Documents/GitHub/MonkFlip/MonkFlip/build_monkflip_vc12x/temp_defines_release.h'
p2652
sbsS'iwgl.mkf'
p2653
g300
(g1438
g302
Ntp2654
Rp2655
(dp2656
g1442
g1120
sg1443
g1460
sg326
g1118
sbsS'IwColour.h'
p2657
g300
(g1438
g302
Ntp2658
Rp2659
(dp2660
g1442
g1266
sg1443
g1572
sg326
g1279
sbsS's3eLibrary.h'
p2661
g300
(g1438
g302
Ntp2662
Rp2663
(dp2664
g1442
g1450
sg1443
g1655
sg326
S'c:/marmalade/7.4/s3e/h/ext/s3eLibrary.h'
p2665
sbsS'types.h'
p2666
g300
(g1438
g302
Ntp2667
Rp2668
(dp2669
g1442
g1450
sg1443
g1586
sg326
S'c:/marmalade/7.4/s3e/h/std/sys/types.h'
p2670
sbsS'ifaddrs.h'
p2671
g300
(g1438
g302
Ntp2672
Rp2673
(dp2674
g1442
g1450
sg1443
g1472
sg326
S'c:/marmalade/7.4/s3e/h/std/ifaddrs.h'
p2675
sbsS'strstream'
p2676
g300
(g1438
g302
Ntp2677
Rp2678
(dp2679
g1442
g1450
sg1443
g1451
sg326
S'c:/marmalade/7.4/s3e/h/std/c++/strstream'
p2680
sbsS'exception'
p2681
g300
(g1438
g302
Ntp2682
Rp2683
(dp2684
g1442
g1450
sg1443
g1451
sg326
S'c:/marmalade/7.4/s3e/h/std/c++/exception'
p2685
sbsS'rlocks.h'
p2686
g300
(g1438
g302
Ntp2687
Rp2688
(dp2689
g1442
g1450
sg1443
g1451
sg326
S'c:/marmalade/7.4/s3e/h/std/c++/rlocks.h'
p2690
sbsS'ioctl.h'
p2691
g300
(g1438
g302
Ntp2692
Rp2693
(dp2694
g1442
g1450
sg1443
g1586
sg326
S'c:/marmalade/7.4/s3e/h/std/sys/ioctl.h'
p2695
sbsS'rope'
p2696
g300
(g1438
g302
Ntp2697
Rp2698
(dp2699
g1442
g1450
sg1443
g1451
sg326
S'c:/marmalade/7.4/s3e/h/std/c++/rope'
p2700
sbsS'jinclude.h'
p2701
g300
(g1438
g302
Ntp2702
Rp2703
(dp2704
g1442
g1031
sg1443
g1530
sg326
g1040
sbsS'IwEvent.h'
p2705
g300
(g1438
g302
Ntp2706
Rp2707
(dp2708
g1442
g1320
sg1443
g1479
sg326
g1391
sbsS'IwOptimiseSize.h'
p2709
g300
(g1438
g302
Ntp2710
Rp2711
(dp2712
g1442
g1320
sg1443
g1479
sg326
g1418
sbsS'iwgxfont_public.defines.txt'
p2713
g300
(g1438
g302
Ntp2714
Rp2715
(dp2716
g1442
g1144
sg1443
g1444
sg326
g1142
sbsS'iconv.h'
p2717
g300
(g1438
g302
Ntp2718
Rp2719
(dp2720
g1442
g1450
sg1443
g1472
sg326
S'c:/marmalade/7.4/s3e/h/std/iconv.h'
p2721
sbsS'sendfile.h'
p2722
g300
(g1438
g302
Ntp2723
Rp2724
(dp2725
g1442
g1450
sg1443
g1586
sg326
S'c:/marmalade/7.4/s3e/h/std/sys/sendfile.h'
p2726
sbsS'IwGeomSphere.h'
p2727
g300
(g1438
g302
Ntp2728
Rp2729
(dp2730
g1442
g1166
sg1443
g1500
sg326
g1224
sbsS'tiniconv.mkf'
p2731
g300
(g1438
g302
Ntp2732
Rp2733
(dp2734
g1442
g1068
sg1443
g1894
sg326
g1066
sbsS'jdct.h'
p2735
g300
(g1438
g302
Ntp2736
Rp2737
(dp2738
g1442
g1031
sg1443
g1530
sg326
g1046
sbsS'cctype'
p2739
g300
(g1438
g302
Ntp2740
Rp2741
(dp2742
g1442
g1450
sg1443
g1451
sg326
S'c:/marmalade/7.4/s3e/h/std/c++/cctype'
p2743
sbsS's3eConfig.h'
p2744
g300
(g1438
g302
Ntp2745
Rp2746
(dp2747
g1442
g1450
sg1443
g1466
sg326
S'c:/marmalade/7.4/s3e/h/s3eConfig.h'
p2748
sbsS'IwHashString.h'
p2749
g300
(g1438
g302
Ntp2750
Rp2751
(dp2752
g1442
g1320
sg1443
g1479
sg326
g1343
sbsS'stat.h'
p2753
g300
(g1438
g302
Ntp2754
Rp2755
(dp2756
g1442
g1450
sg1443
g1586
sg326
S'c:/marmalade/7.4/s3e/h/std/sys/stat.h'
p2757
sbsS'byteswap.h'
p2758
g300
(g1438
g302
Ntp2759
Rp2760
(dp2761
g1442
g1450
sg1443
g1472
sg326
S'c:/marmalade/7.4/s3e/h/std/byteswap.h'
p2762
sbsS'iwresmanager.mkf'
p2763
g300
(g1438
g302
Ntp2764
Rp2765
(dp2766
g1442
g1255
sg1443
g1695
sg326
g1253
sbsS'IwUtilInitTerm.h'
p2767
g300
(g1438
g302
Ntp2768
Rp2769
(dp2770
g1442
g1320
sg1443
g1479
sg326
g1323
sbsS'pthread_1.h'
p2771
g300
(g1438
g302
Ntp2772
Rp2773
(dp2774
g1442
g1450
sg1443
g1451
sg326
S'c:/marmalade/7.4/s3e/h/std/c++/pthread.h'
p2775
sbsS'iw2d.mkf'
p2776
g300
(g1438
g302
Ntp2777
Rp2778
(dp2779
g1442
g1139
sg1443
g1535
sg326
g1137
sbsS'complex'
p2780
g300
(g1438
g302
Ntp2781
Rp2782
(dp2783
g1442
g1450
sg1443
g1451
sg326
S'c:/marmalade/7.4/s3e/h/std/c++/complex'
p2784
sbsS's3e.icf'
p2785
g300
(g1438
g302
Ntp2786
Rp2787
(dp2788
g1442
g1450
sg1443
g1466
sg326
S'c:/marmalade/7.4/s3e/s3e.icf'
p2789
sbsS'sem.h'
p2790
g300
(g1438
g302
Ntp2791
Rp2792
(dp2793
g1442
g1450
sg1443
g1586
sg326
S'c:/marmalade/7.4/s3e/h/std/sys/sem.h'
p2794
sbsS'IwGxFontState.h'
p2795
g300
(g1438
g302
Ntp2796
Rp2797
(dp2798
g1442
g1144
sg1443
g1444
sg326
g1155
sbsS'stdio.h'
p2799
g300
(g1438
g302
Ntp2800
Rp2801
(dp2802
g1442
g1450
sg1443
g1472
sg326
S'c:/marmalade/7.4/s3e/h/std/stdio.h'
p2803
sbsS'Game.h'
p2804
g300
(g1438
g302
Ntp2805
Rp2806
(dp2807
g1442
g1075
sg1443
g1714
sg326
g1086
sbsS'jmemsys.h'
p2808
g300
(g1438
g302
Ntp2809
Rp2810
(dp2811
g1442
g1031
sg1443
g1530
sg326
g1032
sbsS'ios'
p2812
g300
(g1438
g302
Ntp2813
Rp2814
(dp2815
g1442
g1450
sg1443
g1451
sg326
S'c:/marmalade/7.4/s3e/h/std/c++/ios'
p2816
sbsS'IwGeomFVec4.h'
p2817
g300
(g1438
g302
Ntp2818
Rp2819
(dp2820
g1442
g1166
sg1443
g1500
sg326
g1184
sbsS'stack'
p2821
g300
(g1438
g302
Ntp2822
Rp2823
(dp2824
g1442
g1450
sg1443
g1451
sg326
S'c:/marmalade/7.4/s3e/h/std/c++/stack'
p2825
sbsS'new.h'
p2826
g300
(g1438
g302
Ntp2827
Rp2828
(dp2829
g1442
g1450
sg1443
g1451
sg326
S'c:/marmalade/7.4/s3e/h/std/c++/new.h'
p2830
sbsS's3eEMail.h'
p2831
g300
(g1438
g302
Ntp2832
Rp2833
(dp2834
g1442
g1450
sg1443
g1655
sg326
S'c:/marmalade/7.4/s3e/h/ext/s3eEMail.h'
p2835
sbsS's3eVideo.h'
p2836
g300
(g1438
g302
Ntp2837
Rp2838
(dp2839
g1442
g1450
sg1443
g1466
sg326
S'c:/marmalade/7.4/s3e/h/s3eVideo.h'
p2840
sbsS'pngconf.h'
p2841
g300
(g1438
g302
Ntp2842
Rp2843
(dp2844
g1442
g1020
sg1443
g2150
sg326
g1021
sbsS'pwd.h'
p2845
g300
(g1438
g302
Ntp2846
Rp2847
(dp2848
g1442
g1450
sg1443
g1472
sg326
S'c:/marmalade/7.4/s3e/h/std/pwd.h'
p2849
sbsS'IwOptimiseThumb.h'
p2850
g300
(g1438
g302
Ntp2851
Rp2852
(dp2853
g1442
g1320
sg1443
g1479
sg326
g1408
sbsS'gl3.h'
p2854
g300
(g1438
g302
Ntp2855
Rp2856
(dp2857
g1442
g1450
sg1443
g1747
sg326
S'c:/marmalade/7.4/s3e/h/GLES3/gl3.h'
p2858
sbsS'IwClip.h'
p2859
g300
(g1438
g302
Ntp2860
Rp2861
(dp2862
g1442
g1266
sg1443
g1572
sg326
g1283
sbsS'iwresmanager.config.txt'
p2863
g300
(g1438
g302
Ntp2864
Rp2865
(dp2866
g1442
g1242
sg1443
g1695
sg326
g1260
sbsS'IwGxShaderTechnique.h'
p2867
g300
(g1438
g302
Ntp2868
Rp2869
(dp2870
g1442
g1266
sg1443
g1572
sg326
g1310
sbsS'IwCore.h'
p2871
g300
(g1438
g302
Ntp2872
Rp2873
(dp2874
g1442
g1320
sg1443
g1479
sg326
g1337
sbsS'cfloat'
p2875
g300
(g1438
g302
Ntp2876
Rp2877
(dp2878
g1442
g1450
sg1443
g1451
sg326
S'c:/marmalade/7.4/s3e/h/std/c++/cfloat'
p2879
sbsS'IwGeomMat2D.h'
p2880
g300
(g1438
g302
Ntp2881
Rp2882
(dp2883
g1442
g1166
sg1443
g1500
sg326
g1222
sbsS'IwAllocator.h'
p2884
g300
(g1438
g302
Ntp2885
Rp2886
(dp2887
g1442
g1320
sg1443
g1479
sg326
g1357
sbsS'IwPath.h'
p2888
g300
(g1438
g302
Ntp2889
Rp2890
(dp2891
g1442
g1320
sg1443
g1479
sg326
g1412
sbsS'iwgxfont.mkf'
p2892
g300
(g1438
g302
Ntp2893
Rp2894
(dp2895
g1442
g1161
sg1443
g1444
sg326
g1159
sbsS'IwTexture.h'
p2896
g300
(g1438
g302
Ntp2897
Rp2898
(dp2899
g1442
g1266
sg1443
g1572
sg326
g1275
sbsS'IwGeomVec.h.tpl'
p2900
g300
(g1438
g302
Ntp2901
Rp2902
(dp2903
g1442
g1166
sg1443
g1500
sg326
g1174
sbsS's3eAccelerometer.h'
p2904
g300
(g1438
g302
Ntp2905
Rp2906
(dp2907
g1442
g1450
sg1443
g1466
sg326
S'c:/marmalade/7.4/s3e/h/s3eAccelerometer.h'
p2908
sbsS'setjmp.h'
p2909
g300
(g1438
g302
Ntp2910
Rp2911
(dp2912
g1442
g1450
sg1443
g1472
sg326
S'c:/marmalade/7.4/s3e/h/std/setjmp.h'
p2913
sbsS'IwFile.h'
p2914
g300
(g1438
g302
Ntp2915
Rp2916
(dp2917
g1442
g1320
sg1443
g1479
sg326
g1363
sbsS'IwTextParseable.h'
p2918
g300
(g1438
g302
Ntp2919
Rp2920
(dp2921
g1442
g1320
sg1443
g1479
sg326
g1361
sbsS'istream.h'
p2922
g300
(g1438
g302
Ntp2923
Rp2924
(dp2925
g1442
g1450
sg1443
g1451
sg326
S'c:/marmalade/7.4/s3e/h/std/c++/istream.h'
p2926
sbsS'Screen.cpp'
p2927
g300
(g1438
g302
Ntp2928
Rp2929
(dp2930
g1442
g1075
sg1443
g1714
sg326
g1078
sbsS'stdint.h'
p2931
g300
(g1438
g302
Ntp2932
Rp2933
(dp2934
g1442
g1450
sg1443
g1472
sg326
S'c:/marmalade/7.4/s3e/h/std/stdint.h'
p2935
sbsS'semaphore.h'
p2936
g300
(g1438
g302
Ntp2937
Rp2938
(dp2939
g1442
g1450
sg1443
g1472
sg326
S'c:/marmalade/7.4/s3e/h/std/semaphore.h'
p2940
sbsS'Main.cpp'
p2941
g300
(g1438
g302
Ntp2942
Rp2943
(dp2944
g1442
g1075
sg1443
g1714
sg326
g1076
sbsS'ctime'
p2945
g300
(g1438
g302
Ntp2946
Rp2947
(dp2948
g1442
g1450
sg1443
g1451
sg326
S'c:/marmalade/7.4/s3e/h/std/c++/ctime'
p2949
sbsS'sstream'
p2950
g300
(g1438
g302
Ntp2951
Rp2952
(dp2953
g1442
g1450
sg1443
g1451
sg326
S'c:/marmalade/7.4/s3e/h/std/c++/sstream'
p2954
sbsS'IwGeomFBBox.h'
p2955
g300
(g1438
g302
Ntp2956
Rp2957
(dp2958
g1442
g1166
sg1443
g1500
sg326
g1188
sbsS'IwDebugPrim.h'
p2959
g300
(g1438
g302
Ntp2960
Rp2961
(dp2962
g1442
g1266
sg1443
g1572
sg326
g1264
sbsS'IwGxFontContainer.h'
p2963
g300
(g1438
g302
Ntp2964
Rp2965
(dp2966
g1442
g1144
sg1443
g1444
sg326
g1157
sbsS'IwGeomSVec3.h'
p2967
g300
(g1438
g302
Ntp2968
Rp2969
(dp2970
g1442
g1166
sg1443
g1500
sg326
g1200
sbsS'cassert'
p2971
g300
(g1438
g302
Ntp2972
Rp2973
(dp2974
g1442
g1450
sg1443
g1451
sg326
S'c:/marmalade/7.4/s3e/h/std/c++/cassert'
p2975
sbsS'IwGeomFVec3.h'
p2976
g300
(g1438
g302
Ntp2977
Rp2978
(dp2979
g1442
g1166
sg1443
g1500
sg326
g1226
sbsS'streambuf'
p2980
g300
(g1438
g302
Ntp2981
Rp2982
(dp2983
g1442
g1450
sg1443
g1451
sg326
S'c:/marmalade/7.4/s3e/h/std/c++/streambuf'
p2984
sbsS's3eMetrics.h'
p2985
g300
(g1438
g302
Ntp2986
Rp2987
(dp2988
g1442
g1450
sg1443
g1655
sg326
S'c:/marmalade/7.4/s3e/h/ext/s3eMetrics.h'
p2989
sbsS'IwGxFont.h'
p2990
g300
(g1438
g302
Ntp2991
Rp2992
(dp2993
g1442
g1144
sg1443
g1444
sg326
g1149
sbsS's3eSecureStorage.h'
p2994
g300
(g1438
g302
Ntp2995
Rp2996
(dp2997
g1442
g1450
sg1443
g1466
sg326
S'c:/marmalade/7.4/s3e/h/s3eSecureStorage.h'
p2998
sbsS'string.h'
p2999
g300
(g1438
g302
Ntp3000
Rp3001
(dp3002
g1442
g1450
sg1443
g1472
sg326
S'c:/marmalade/7.4/s3e/h/std/string.h'
p3003
sbsS'IwResource.h'
p3004
g300
(g1438
g302
Ntp3005
Rp3006
(dp3007
g1442
g1320
sg1443
g1479
sg326
g1335
sbsS'IwGeomSVec2.h'
p3008
g300
(g1438
g302
Ntp3009
Rp3010
(dp3011
g1442
g1166
sg1443
g1500
sg326
g1220
sbsS'libjpeg.mkf'
p3012
g300
(g1438
g302
Ntp3013
Rp3014
(dp3015
g1442
g1060
sg1443
(lp3016
g1026
asg326
g1058
sbsS'IwGxDebug.h'
p3017
g300
(g1438
g302
Ntp3018
Rp3019
(dp3020
g1442
g1266
sg1443
g1572
sg326
g1289
sbsS'float.h'
p3021
g300
(g1438
g302
Ntp3022
Rp3023
(dp3024
g1442
g1450
sg1443
g1472
sg326
S'c:/marmalade/7.4/s3e/h/std/float.h'
p3025
sbsS'iomanip.h'
p3026
g300
(g1438
g302
Ntp3027
Rp3028
(dp3029
g1442
g1450
sg1443
g1451
sg326
S'c:/marmalade/7.4/s3e/h/std/c++/iomanip.h'
p3030
sbsS'IwKeymap.h'
p3031
g300
(g1438
g302
Ntp3032
Rp3033
(dp3034
g1442
g1320
sg1443
g1479
sg326
g1399
sbsS'IwDebug.h'
p3035
g300
(g1438
g302
Ntp3036
Rp3037
(dp3038
g1442
g1320
sg1443
g1479
sg326
g1327
sbsS's3eIOSBackgroundAudio.h'
p3039
g300
(g1438
g302
Ntp3040
Rp3041
(dp3042
g1442
g1450
sg1443
g1655
sg326
S'c:/marmalade/7.4/s3e/h/ext/s3eIOSBackgroundAudio.h'
p3043
sbsS'IwGeomMenu.h'
p3044
g300
(g1438
g302
Ntp3045
Rp3046
(dp3047
g1442
g1166
sg1443
g1500
sg326
g1180
sbsS'IwDivTable.h'
p3048
g300
(g1438
g302
Ntp3049
Rp3050
(dp3051
g1442
g1320
sg1443
g1479
sg326
g1329
sbsS'ctype.h'
p3052
g300
(g1438
g302
Ntp3053
Rp3054
(dp3055
g1442
g1450
sg1443
g1472
sg326
S'c:/marmalade/7.4/s3e/h/std/ctype.h'
p3056
sbsS'IwGeomMat.h'
p3057
g300
(g1438
g302
Ntp3058
Rp3059
(dp3060
g1442
g1166
sg1443
g1500
sg326
g1202
sbsS'IwResGroup.h'
p3061
g300
(g1438
g302
Ntp3062
Rp3063
(dp3064
g1442
g1242
sg1443
g1695
sg326
g1243
sbsS'signal_1.h'
p3065
g300
(g1438
g302
Ntp3066
Rp3067
(dp3068
g1442
g1450
sg1443
g1586
sg326
S'c:/marmalade/7.4/s3e/h/std/sys/signal.h'
p3069
sbsS'functional'
p3070
g300
(g1438
g302
Ntp3071
Rp3072
(dp3073
g1442
g1450
sg1443
g1451
sg326
S'c:/marmalade/7.4/s3e/h/std/c++/functional'
p3074
sbsS'shm.h'
p3075
g300
(g1438
g302
Ntp3076
Rp3077
(dp3078
g1442
g1450
sg1443
g1586
sg326
S'c:/marmalade/7.4/s3e/h/std/sys/shm.h'
p3079
sbsS'IwManagedList.h'
p3080
g300
(g1438
g302
Ntp3081
Rp3082
(dp3083
g1442
g1320
sg1443
g1479
sg326
g1347
sbsS'Game.cpp'
p3084
g300
(g1438
g302
Ntp3085
Rp3086
(dp3087
g1442
g1075
sg1443
g1714
sg326
g1092
sbsS'prctl.h'
p3088
g300
(g1438
g302
Ntp3089
Rp3090
(dp3091
g1442
g1450
sg1443
g1586
sg326
S'c:/marmalade/7.4/s3e/h/std/sys/prctl.h'
p3092
sbsS'un.h'
p3093
g300
(g1438
g302
Ntp3094
Rp3095
(dp3096
g1442
g1450
sg1443
g1586
sg326
S'c:/marmalade/7.4/s3e/h/std/sys/un.h'
p3097
sbsS'temp_defines_debug.h'
p3098
g300
(g1438
g302
Ntp3099
Rp3100
(dp3101
g1442
(lp3102
sg1443
(lp3103
g2651
asg326
S'c:/Users/YUSUKE-SATO/Documents/GitHub/MonkFlip/MonkFlip/build_monkflip_vc12x/temp_defines_debug.h'
p3104
sbsS'utility'
p3105
g300
(g1438
g302
Ntp3106
Rp3107
(dp3108
g1442
g1450
sg1443
g1451
sg326
S'c:/marmalade/7.4/s3e/h/std/c++/utility'
p3109
sbsS'IwGeomLegacy.h'
p3110
g300
(g1438
g302
Ntp3111
Rp3112
(dp3113
g1442
g1166
sg1443
g1500
sg326
g1208
sbsS'IwTPage.h'
p3114
g300
(g1438
g302
Ntp3115
Rp3116
(dp3117
g1442
g1266
sg1443
g1572
sg326
g1285
sbsS'IwResSerialise.h'
p3118
g300
(g1438
g302
Ntp3119
Rp3120
(dp3121
g1442
g1242
sg1443
g1695
sg326
g1249
sbsS's3eCrypto.h'
p3122
g300
(g1438
g302
Ntp3123
Rp3124
(dp3125
g1442
g1450
sg1443
g1466
sg326
S'c:/marmalade/7.4/s3e/h/s3eCrypto.h'
p3126
sbsS's3eKeyboard.h'
p3127
g300
(g1438
g302
Ntp3128
Rp3129
(dp3130
g1442
g1450
sg1443
g1466
sg326
S'c:/marmalade/7.4/s3e/h/s3eKeyboard.h'
p3131
sbsS'fcntl.h'
p3132
g300
(g1438
g302
Ntp3133
Rp3134
(dp3135
g1442
g1450
sg1443
g1472
sg326
S'c:/marmalade/7.4/s3e/h/std/fcntl.h'
p3136
sbsS'memory.h'
p3137
g300
(g1438
g302
Ntp3138
Rp3139
(dp3140
g1442
g1450
sg1443
g1472
sg326
S'c:/marmalade/7.4/s3e/h/std/memory.h'
p3141
sbsS'pthread.h'
p3142
g300
(g1438
g302
Ntp3143
Rp3144
(dp3145
g1442
g1450
sg1443
g1472
sg326
S'c:/marmalade/7.4/s3e/h/std/pthread.h'
p3146
sbsS'IwGeomIntersect.h'
p3147
g300
(g1438
g302
Ntp3148
Rp3149
(dp3150
g1442
g1166
sg1443
g1500
sg326
g1218
sbsS'algorithm'
p3151
g300
(g1438
g302
Ntp3152
Rp3153
(dp3154
g1442
g1450
sg1443
g1451
sg326
S'c:/marmalade/7.4/s3e/h/std/c++/algorithm'
p3155
sbsS'egl_1.h'
p3156
g300
(g1438
g302
Ntp3157
Rp3158
(dp3159
g1442
g1450
sg1443
g1994
sg326
S'c:/marmalade/7.4/s3e/h/GLES/egl.h'
p3160
sbsS'Button.h'
p3161
g300
(g1438
g302
Ntp3162
Rp3163
(dp3164
g1442
g1075
sg1443
g1714
sg326
g1096
sbsS'ostream.h'
p3165
g300
(g1438
g302
Ntp3166
Rp3167
(dp3168
g1442
g1450
sg1443
g1451
sg326
S'c:/marmalade/7.4/s3e/h/std/c++/ostream.h'
p3169
sbsS'stl_user_config.h'
p3170
g300
(g1438
g302
Ntp3171
Rp3172
(dp3173
g1442
g1450
sg1443
g1451
sg326
S'c:/marmalade/7.4/s3e/h/std/c++/stl_user_config.h'
p3174
sbsS'IwProfileMenu.h'
p3175
g300
(g1438
g302
Ntp3176
Rp3177
(dp3178
g1442
g1320
sg1443
g1479
sg326
g1345
sbsS'MarmaladeVersion.h'
p3179
g300
(g1438
g302
Ntp3180
Rp3181
(dp3182
g1442
g1450
sg1443
g1466
sg326
S'c:/marmalade/7.4/s3e/h/MarmaladeVersion.h'
p3183
sbsS'gl3platform.h'
p3184
g300
(g1438
g302
Ntp3185
Rp3186
(dp3187
g1442
g1450
sg1443
g1747
sg326
S'c:/marmalade/7.4/s3e/h/GLES3/gl3platform.h'
p3188
sbsS'ios.h'
p3189
g300
(g1438
g302
Ntp3190
Rp3191
(dp3192
g1442
g1450
sg1443
g1451
sg326
S'c:/marmalade/7.4/s3e/h/std/c++/ios.h'
p3193
sbsS'IwImageHelper.h'
p3194
g300
(g1438
g302
Ntp3195
Rp3196
(dp3197
g1442
g1320
sg1443
g1479
sg326
g1377
sbsS'hash_set'
p3198
g300
(g1438
g302
Ntp3199
Rp3200
(dp3201
g1442
g1450
sg1443
g1451
sg326
S'c:/marmalade/7.4/s3e/h/std/c++/hash_set'
p3202
sbsS'IwGeomFQuat.h'
p3203
g300
(g1438
g302
Ntp3204
Rp3205
(dp3206
g1442
g1166
sg1443
g1500
sg326
g1178
sbsS'jmorecfg.h'
p3207
g300
(g1438
g302
Ntp3208
Rp3209
(dp3210
g1442
g1031
sg1443
g1530
sg326
g1056
sbsS'eglplatform.h'
p3211
g300
(g1438
g302
Ntp3212
Rp3213
(dp3214
g1442
g1450
sg1443
g1779
sg326
S'c:/marmalade/7.4/s3e/h/EGL/eglplatform.h'
p3215
sbsS'cmath'
p3216
g300
(g1438
g302
Ntp3217
Rp3218
(dp3219
g1442
g1450
sg1443
g1451
sg326
S'c:/marmalade/7.4/s3e/h/std/c++/cmath'
p3220
sbsS'math_gcc.h'
p3221
g300
(g1438
g302
Ntp3222
Rp3223
(dp3224
g1442
g1450
sg1443
g1472
sg326
S'c:/marmalade/7.4/s3e/h/std/math_gcc.h'
p3225
sbsS's3eMemory.h'
p3226
g300
(g1438
g302
Ntp3227
Rp3228
(dp3229
g1442
g1450
sg1443
g1466
sg326
S'c:/marmalade/7.4/s3e/h/s3eMemory.h'
p3230
sbsS'strings.h'
p3231
g300
(g1438
g302
Ntp3232
Rp3233
(dp3234
g1442
g1450
sg1443
g1472
sg326
S'c:/marmalade/7.4/s3e/h/std/strings.h'
p3235
sbsS's3eFile.h'
p3236
g300
(g1438
g302
Ntp3237
Rp3238
(dp3239
g1442
g1450
sg1443
g1466
sg326
S'c:/marmalade/7.4/s3e/h/s3eFile.h'
p3240
sbsS'IwGxTypes.h'
p3241
g300
(g1438
g302
Ntp3242
Rp3243
(dp3244
g1442
g1266
sg1443
g1572
sg326
g1312
sbsS'cerrno'
p3245
g300
(g1438
g302
Ntp3246
Rp3247
(dp3248
g1442
g1450
sg1443
g1451
sg326
S'c:/marmalade/7.4/s3e/h/std/c++/cerrno'
p3249
sbsS'resource.h'
p3250
g300
(g1438
g302
Ntp3251
Rp3252
(dp3253
g1442
g1450
sg1443
g1586
sg326
S'c:/marmalade/7.4/s3e/h/std/sys/resource.h'
p3254
sbsS'clocale'
p3255
g300
(g1438
g302
Ntp3256
Rp3257
(dp3258
g1442
g1450
sg1443
g1451
sg326
S'c:/marmalade/7.4/s3e/h/std/c++/clocale'
p3259
sbsS'pvrtextool.mkf'
p3260
g300
(g1438
g302
Ntp3261
Rp3262
(dp3263
g1442
g1111
sg1443
g2026
sg326
g1109
sbsS'csetjmp'
p3264
g300
(g1438
g302
Ntp3265
Rp3266
(dp3267
g1442
g1450
sg1443
g1451
sg326
S'c:/marmalade/7.4/s3e/h/std/c++/csetjmp'
p3268
sbsS'netdb.h'
p3269
g300
(g1438
g302
Ntp3270
Rp3271
(dp3272
g1442
g1450
sg1443
g1472
sg326
S'c:/marmalade/7.4/s3e/h/std/netdb.h'
p3273
sbsS's3eAndroidJNI.h'
p3274
g300
(g1438
g302
Ntp3275
Rp3276
(dp3277
g1442
g1450
sg1443
g1655
sg326
S'c:/marmalade/7.4/s3e/h/ext/s3eAndroidJNI.h'
p3278
sbsS'stdexcept'
p3279
g300
(g1438
g302
Ntp3280
Rp3281
(dp3282
g1442
g1450
sg1443
g1451
sg326
S'c:/marmalade/7.4/s3e/h/std/c++/stdexcept'
p3283
sbsS'math.h'
p3284
g300
(g1438
g302
Ntp3285
Rp3286
(dp3287
g1442
g1450
sg1443
g1472
sg326
S'c:/marmalade/7.4/s3e/h/std/math.h'
p3288
sbsS'stdbool.h'
p3289
g300
(g1438
g302
Ntp3290
Rp3291
(dp3292
g1442
g1450
sg1443
g1472
sg326
S'c:/marmalade/7.4/s3e/h/std/stdbool.h'
p3293
sbsS'uio.h'
p3294
g300
(g1438
g302
Ntp3295
Rp3296
(dp3297
g1442
g1450
sg1443
g1586
sg326
S'c:/marmalade/7.4/s3e/h/std/sys/uio.h'
p3298
sbsS'IwUncopyable.h'
p3299
g300
(g1438
g302
Ntp3300
Rp3301
(dp3302
g1442
g1320
sg1443
g1479
sg326
g1369
sbssS'juice_build_type'
p3303
g4
sS'tests'
p3304
(lp3305
sS'project_name'
p3306
g308
sS'root_file'
p3307
g120
sS'current_root'
p3308
S'c:/Users/YUSUKE-SATO/Documents/GitHub/MonkFlip/MonkFlip'
p3309
sS'dependencies'
p3310
(lp3311
sS'include_paths'
p3312
(lp3313
S'c:/marmalade/7.4/modules/iw2d/h'
p3314
aS'c:/marmalade/7.4/modules/iwgx/h'
p3315
aS'c:/marmalade/7.4/modules/iwgl/h'
p3316
aS'c:/marmalade/7.4/modules/iwutil/h'
p3317
aS'c:/marmalade/7.4/modules/third_party/libjpeg/h'
p3318
aS'c:/marmalade/7.4/modules/third_party/zlib/h'
p3319
aS'c:/marmalade/7.4/modules/third_party/libpng/h'
p3320
aS'c:/marmalade/7.4/modules/iwgeom/h'
p3321
aS'c:/marmalade/7.4/modules/iwresmanager/h'
p3322
aS'c:/marmalade/7.4/extensions/pvrtextool/h'
p3323
aS'c:/marmalade/7.4/modules/iwgxfont/h'
p3324
aS'c:/marmalade/7.4/modules/third_party/tiniconv/source'
p3325
aS'c:/Users/YUSUKE-SATO/Documents/GitHub/MonkFlip/MonkFlip/source'
p3326
aS'c:/marmalade/7.4/s3e/h'
p3327
aS'c:/marmalade/7.4/s3e/h/ext'
p3328
aS'c:/marmalade/7.4/s3e/h/std'
p3329
aS'c:/marmalade/7.4/s3e/h/std/c++'
p3330
aS'c:/marmalade/7.4/s3e/h/ext_legacy'
p3331
aS'c:/marmalade/7.4/s3e/h/legacy'
p3332
asS'weak_frameworks'
p3333
(lp3334
sS'extprojects'
p3335
(dp3336
sg556
(dp3337
g550
(lp3338
(S'c:/Users/YUSUKE-SATO/Documents/GitHub/MonkFlip/MonkFlip/data-ram/data-gles1/level1.group.bin,c:/Users/YUSUKE-SATO/Documents/GitHub/MonkFlip/MonkFlip/data/level1.group.bin'
p3339
S'level1.group.bin'
p3340
I0
tp3341
assS'macro_types'
p3342
(dp3343
g499
I1
sg500
I0
sg501
I0
sg502
I0
sg503
I0
sg504
I0
sg505
I0
sg506
I0
sg507
I0
sg509
I0
sg510
I0
sg511
I0
sg512
I0
sg514
I0
sg516
I0
sg517
I0
sg518
I0
sg519
I1
sg520
I0
sg521
I0
sg522
I0
sg523
I01
sg524
I1
sg525
I0
sg526
I0
sg527
I0
sg529
I0
sg530
I0
sg531
I0
ssS'commands'
p3344
(lp3345
sg558
(g1007
S'VC12X'
p3346
S'X86ARM'
p3347
tp3348
sS'build_libs'
p3349
(dp3350
sg560
g0
sS'frameworks'
p3351
(lp3352
sS'environ'
p3353
(dp3354
sS'target_name_debug'
p3355
g308
sS'builders'
p3356
(dp3357
g550
(dp3358
S'.S'
p3359
(dp3360
S'rvct'
p3361
(lp3362
S'.obj'
p3363
aS'echo ARM Assembling(RVCT) ${SOURCE}...'
p3364
aS'c:/marmalade/7.4/s3e\\rvct\\bin\\armasm -o ${TARGET} ${SOURCE}'
p3365
asg422
(lp3366
g3363
aS'echo ARM Assembling(GCC) ${SOURCE}...'
p3367
aS'c:/marmalade/7.4/s3e\\gcc\\bin\\arm-none-eabi-gcc -c -o ${TARGET} ${SOURCE}'
p3368
asS'ppu'
p3369
(lp3370
S'.a'
p3371
aS'echo PPU Assembling(SNC) ${SOURCE}...'
p3372
aS'c:/marmalade/7.4/s3e\\rvct\\bin\\armasm -o ${TARGET} ${SOURCE}'
p3373
assS'.s'
p3374
g3360
sS'.vp'
p3375
(lp3376
NaS'"C:/Marmalade/7.4/s3e/python/python.exe" "c:/marmalade/7.4/modules/iwgx/tools/compile_shaders.py" ${SOURCE}'
p3377
asssS'extproject_names'
p3378
(lp3379
sbtp3380
.