((dp0
S'arm_dbg_args'
p1
S'-via:"c:\\Users\\YUSUKE-SATO\\Documents\\GitHub\\MonkFlip\\MonkFlip\\build_monkflip_vc12x\\MonkFlip_vc12x_arm_debug.via" -qemu'
p2
sS'game-icf'
p3
S''
p4
sS'dist'
p5
NsS'csproj'
p6
g4
sS'module_path_append'
p7
NsS'global_path'
p8
S'c:\\users\\yusuke-sato\\documents\\github\\monkflip'
p9
sS'system_path'
p10
S'c:\\marmalade\\7.4\\s3e\\makefile_builder'
p11
sS'android_x86_dbg_args'
p12
S'../../tools/DeployTool/DeployTool.exe --dir "c:\\Users\\YUSUKE-SATO\\Documents\\GitHub\\MonkFlip\\MonkFlip\\build_monkflip_vc12x"'
p13
sS'no-emit'
p14
NsS'arm-float-abi'
p15
g4
sS'arm_rel_rtsm_args'
p16
S'-via:"c:\\Users\\YUSUKE-SATO\\Documents\\GitHub\\MonkFlip\\MonkFlip\\build_monkflip_vc12x\\MonkFlip_vc12x_arm_release.via" -qemu'
p17
sS'amd64'
p18
NsS'line-width'
p19
I80
sS'gcc_dbg_args'
p20
S'-via:"c:\\Users\\YUSUKE-SATO\\Documents\\GitHub\\MonkFlip\\MonkFlip\\build_monkflip_vc12x\\MonkFlip_vc12x_gcc_debug.via" -qemu'
p21
sS'android-x86'
p22
NsS'x86_dbg_exe'
p23
S'c:/marmalade/7.4/s3e\\win32\\s3e_simulator_debug.exe'
p24
sS'disable-runtime-checks'
p25
NsS'release'
p26
NsS'no-make'
p27
NsS'xcode-x86-build-settings'
p28
g4
sS'optimise-size'
p29
NsS'output-name-debug'
p30
g4
sS'arm-fpu'
p31
g4
sS'proj_name'
p32
S'MonkFlip_vc12x'
p33
sS'rvct-version'
p34
S'none'
p35
sS'compiler'
p36
g4
sS'execute'
p37
NsS'compile-static'
p38
NsS'msvc-project'
p39
I01
sS'buildenv'
p40
g4
sS'quick'
p41
NsS'module_path'
p42
NsS'use-release-std-libs'
p43
NsS'using_perforce'
p44
I00
sS'tizen-x86'
p45
NsS'mips-s3e'
p46
NsS's3e-api-lib-name'
p47
S's3e_api_iwgl'
p48
sS'ios-no-pic'
p49
NsS'shared-arm-lib'
p50
NsS'arm-cpu'
p51
g4
sS'compile-thumb'
p52
NsS'no-ide'
p53
NsS'msvc-version'
p54
S'6.0'
p55
sS'arm'
p56
NsS'builddir'
p57
g4
sS'compile-debug-as-release'
p58
I0
sS'arm-arch'
p59
g4
sS'brief'
p60
NsS'dll'
p61
NsS'buildenv-toolset'
p62
g4
sS'version'
p63
NsS'ccache'
p64
I0
sS'offline'
p65
NsS'ios-version'
p66
g4
sS'hub_data'
p67
g4
sS'fake_vc_call'
p68
NsS'jobs'
p69
I0
sS'linkflags'
p70
NsS'debug'
p71
NsS'xcode-build-order'
p72
g4
sS'gcc_rel_rtsm_args'
p73
S'-via:"c:\\Users\\YUSUKE-SATO\\Documents\\GitHub\\MonkFlip\\MonkFlip\\build_monkflip_vc12x\\MonkFlip_vc12x_gcc_release.via" -qemu'
p74
sS'done_defaults'
p75
I1
sS'path'
p76
NsS's3e-data-dir'
p77
S'c:/Users/YUSUKE-SATO/Documents/GitHub/MonkFlip/MonkFlip\\data'
p78
sS'enable-exceptions'
p79
NsS'osx-dll'
p80
NsS'extension'
p81
g4
sS'no-vc6'
p82
NsS'non-interactive'
p83
NsS'win32-console'
p84
NsS'dist-format'
p85
g4
sS's3e-force-arch'
p86
NsS'dump_defines'
p87
NsS'use_prebuilt'
p88
NsS'gcc-version'
p89
g4
sS'x86_dbg_args'
p90
S'-via:"c:\\Users\\YUSUKE-SATO\\Documents\\GitHub\\MonkFlip\\MonkFlip\\build_monkflip_vc12x\\MonkFlip_vc12x_debug.via"'
p91
sS'tizen_x86_dbg_args'
p92
g13
sS'arm-debugger'
p93
g4
sS'use_temp_extension'
p94
NsS'verbose'
p95
I0
sS'log'
p96
NsS'no-strip'
p97
NsS'rebuild'
p98
NsS'win32-simulator-dll'
p99
NsS'strict'
p100
NsS'mips_dbg_args'
p101
g13
sS'enable-global-path'
p102
NsS'cflags'
p103
NsS'dist-dir'
p104
g4
sS'xcode-arm-build-settings'
p105
g4
sS'jflags'
p106
NsS'csprojSDKRefs'
p107
g4
sS'tizen_x86_rel_exe'
p108
S'c:\\marmalade\\7.4\\s3e\\makefile_builder\\tool_launcher.exe'
p109
sS'test-assets'
p110
g4
sS'distcc'
p111
NsS'external-compiler'
p112
NsS'no-distcc'
p113
NsS'preinclude'
p114
NsS'using_sdk'
p115
I01
sS'nologo'
p116
NsS'warn-level'
p117
I2
sS'mips_dbg_exe'
p118
g109
sS'mkb_in'
p119
S'c:/Users/YUSUKE-SATO/Documents/GitHub/MonkFlip/MonkFlip/MonkFlip.mkb'
p120
sS'tizen_x86_dbg_exe'
p121
g109
sS'arm_dbg_exe'
p122
S'c:/marmalade/7.4/s3e\\bin\\armdebug.exe'
p123
sS'csprojDLLRef'
p124
NsS'tizen_x86_rel_args'
p125
g13
sS'android_x86_dbg_exe'
p126
g109
sS'test-config'
p127
g4
sS'list-targets'
p128
NsS'arm_rel_exe'
p129
g109
sS'arm_rel_args'
p130
g13
sS'makedeps'
p131
NsS'android_x86_rel_exe'
p132
g109
sS'default-buildenv'
p133
S'vc12x'
p134
sS'x86_rel_exe'
p135
g24
sS'preprocess-java'
p136
NsS'mips_rel_args'
p137
g13
sS'defines'
p138
NsS'lib'
p139
NsS'global_argv'
p140
(lp141
S'C:\\Marmalade\\7.4\\s3e\\makefile_builder\\mkb.py'
p142
aS'c:/Users/YUSUKE-SATO/Documents/GitHub/MonkFlip/MonkFlip/MonkFlip.mkb'
p143
aS'--default-buildenv=vc12x'
p144
aS'--msvc-project'
p145
asS'make'
p146
NsS'optimise-speed'
p147
NsS'internal'
p148
NsS'enable-stdinc'
p149
NsS'deploy-only'
p150
NsS'x86'
p151
NsS'deploy'
p152
g4
sS'x86_run_exe'
p153
S'c:/marmalade/7.4/s3e\\win32\\s3e_console.exe'
p154
sS'x86_rel_args'
p155
S'-via:"c:\\Users\\YUSUKE-SATO\\Documents\\GitHub\\MonkFlip\\MonkFlip\\build_monkflip_vc12x\\MonkFlip_vc12x_release.via"'
p156
sS'gcc_rel_args'
p157
g13
sS'mips'
p158
NsS'xcode-build-settings'
p159
g4
sS'incredibuild'
p160
NsS'strict-compile'
p161
NsS'use-auto-subdirs'
p162
NsS'mips_rel_exe'
p163
g109
sS'android_x86_rel_args'
p164
g13
sS'app-icf'
p165
g4
sS'deployargs'
p166
NsS'iosnativedebug'
p167
NsS'mkf_in'
p168
(lp169
S'c:\\marmalade\\7.4\\modules\\iw2d\\iw2d.mkf'
p170
aS'c:\\marmalade\\7.4\\modules\\iwgx\\iwgx.mkf'
p171
aS'c:\\marmalade\\7.4\\modules\\iwgl\\iwgl.mkf'
p172
aS'c:\\marmalade\\7.4\\modules\\iwutil\\iwutil.mkf'
p173
aS'c:\\marmalade\\7.4\\modules\\third_party\\libjpeg\\libjpeg.mkf'
p174
aS'c:\\marmalade\\7.4\\modules\\third_party\\libpng\\libpng.mkf'
p175
aS'c:\\marmalade\\7.4\\modules\\third_party\\zlib\\zlib.mkf'
p176
aS'c:\\marmalade\\7.4\\modules\\iwgeom\\iwgeom.mkf'
p177
aS'c:\\marmalade\\7.4\\modules\\iwresmanager\\iwresmanager.mkf'
p178
aS'c:\\marmalade\\7.4\\extensions\\pvrtextool\\pvrtextool.mkf'
p179
aS'c:\\marmalade\\7.4\\modules\\iwgxfont\\iwgxfont.mkf'
p180
aS'c:\\marmalade\\7.4\\modules\\third_party\\tiniconv\\tiniconv.mkf'
p181
asS'strict-mkb'
p182
NsS'executeargs'
p183
NsS'clean'
p184
NsS'no-asm'
p185
NsS'output-name'
p186
g4
sS'no-modules'
p187
NsS'find_define'
p188
g4
s(dp189
S'c:\\marmalade\\7.4\\s3e\\makefile_builder\\plugins\\Emitter.pyc'
p190
F1409106506.0
sS'c:\\marmalade\\7.4\\s3e\\makefile_builder\\templates\\ws8_ext_sln.pyc'
p191
F1409106508.0
sS'c:\\marmalade\\7.4\\s3e\\makefile_builder\\templates\\MainWindow.xib'
p192
F1409103204.0
sS'c:\\marmalade\\7.4\\s3e\\makefile_builder\\templates\\template.suo'
p193
F1409103204.0
sS'c:\\marmalade\\7.4\\s3e\\makefile_builder\\plugins\\xcode4_schememanagement.py'
p194
F1409103204.0
sS'c:\\marmalade\\7.4\\s3e\\makefile_builder\\templates\\ws81_sln.pyc'
p195
F1409106508.0
sS'c:\\marmalade\\7.4\\s3e\\makefile_builder\\templates\\win8_ext_csproj.pyc'
p196
F1409106508.0
sS'c:\\marmalade\\7.4\\s3e\\makefile_builder\\mkb_option.pyc'
p197
F1409106506.0
sS'c:\\marmalade\\7.4\\s3e\\makefile_builder\\plugins\\s3e_xcode.py'
p198
F1409103204.0
sS'c:\\marmalade\\7.4\\s3e\\makefile_builder\\plugins\\s3e_scons.pyc'
p199
F1409106506.0
sS'c:\\marmalade\\7.4\\s3e\\makefile_builder\\templates\\win8_vcxproj.pyc'
p200
F1409106508.0
sS'c:\\marmalade\\7.4\\s3e\\makefile_builder\\plugins\\null.pyc'
p201
F1409106506.0
sS'c:\\marmalade\\7.4\\s3e\\makefile_builder\\templates\\vc8_user.pyc'
p202
F1409106506.0
sS'c:\\marmalade\\7.4\\s3e\\makefile_builder\\templates\\wp81_ext_sln.pyc'
p203
F1409106508.0
sS'c:\\marmalade\\7.4\\s3e\\makefile_builder\\templates\\scons.pyc'
p204
F1409106506.0
sS'c:\\marmalade\\7.4\\s3e\\makefile_builder\\templates\\wp8_ext_csproj.pyc'
p205
F1409106508.0
sS'c:\\marmalade\\7.4\\s3e\\makefile_builder\\templates\\xcode_pbxuser.py'
p206
F1409103204.0
sS'c:\\marmalade\\7.4\\s3e\\makefile_builder\\plugins\\s3e_qmake.py'
p207
F1409103204.0
sS'c:\\marmalade\\7.4\\s3e\\makefile_builder\\plugins\\iphone.pyc'
p208
F1409106506.0
sS'c:\\marmalade\\7.4\\s3e\\makefile_builder\\templates\\ws81_ext_csproj.pyc'
p209
F1409106508.0
sS'c:\\marmalade\\7.4\\s3e\\makefile_builder\\templates\\vc6_opt.pyc'
p210
F1409106506.0
sS'c:\\marmalade\\7.4\\s3e\\makefile_builder\\plugins\\s3e_win8.pyc'
p211
F1409106506.0
sS'c:\\marmalade\\7.4\\s3e\\makefile_builder\\mkb_main.pyc'
p212
F1409106506.0
sS'c:\\marmalade\\7.4\\s3e\\makefile_builder\\templates\\wp8_csproj.pyc'
p213
F1409106508.0
sS'c:\\marmalade\\7.4\\s3e\\makefile_builder\\templates\\win32_vcproj.pyc'
p214
F1409106506.0
sS'c:\\marmalade\\7.4\\s3e\\makefile_builder\\templates\\win8_sln.pyc'
p215
F1409106508.0
sS'c:\\marmalade\\7.4\\s3e\\makefile_builder\\mkb_launcher.exe'
p216
F1409103760.0
sS'c:\\marmalade\\7.4\\s3e\\makefile_builder\\plugins\\osx_xcode.pyc'
p217
F1409106506.0
sS'c:\\marmalade\\7.4\\s3e\\makefile_builder\\plugins'
p218
F1410825733.5356746
sS'c:\\marmalade\\7.4\\s3e\\makefile_builder\\templates\\wp8_csproj_user.pyc'
p219
F1409106508.0
sS'c:\\marmalade\\7.4\\s3e\\makefile_builder\\plugins\\win32_vc6.pyc'
p220
F1409106506.0
sS'c:\\marmalade\\7.4\\s3e\\makefile_builder\\plugins\\s3e_vc6.pyc'
p221
F1409106506.0
sS'c:\\marmalade\\7.4\\s3e\\makefile_builder\\templates\\vc10_user.pyc'
p222
F1409106506.0
sS'c:\\marmalade\\7.4\\s3e\\makefile_builder\\docs\\deprecated.defines.txt'
p223
F1409103204.0
sS'c:\\marmalade\\7.4\\s3e\\makefile_builder\\templates\\wp81_csproj_user.pyc'
p224
F1409106508.0
sS'c:\\marmalade\\7.4\\s3e\\makefile_builder\\templates\\ws81_ext_sln.pyc'
p225
F1409106508.0
sS'c:\\marmalade\\7.4\\s3e\\makefile_builder\\templates\\make.py'
p226
F1409103204.0
sS'c:\\marmalade\\7.4\\s3e\\makefile_builder\\plugins\\wp81_wp81.pyc'
p227
F1409106506.0
sS'c:\\marmalade\\7.4\\s3e\\makefile_builder\\plugins\\s3e_qmake.pyc'
p228
F1410825733.1649926
sS'c:\\marmalade\\7.4\\s3e\\makefile_builder\\templates\\mips_linker_script'
p229
F1409103204.0
sS'c:\\marmalade\\7.4\\s3e\\makefile_builder\\plugins\\deploy.pyc'
p230
F1409106506.0
sS'c:\\marmalade\\7.4\\s3e\\makefile_builder\\plugins\\ws81_ws81.pyc'
p231
F1409106506.0
sS'c:\\marmalade\\7.4\\s3e\\makefile_builder\\mkb.py'
p232
F1409103204.0
sS'c:\\marmalade\\7.4\\s3e\\makefile_builder\\docs\\options.txt'
p233
F1409103204.0
sS'c:\\marmalade\\7.4\\s3e\\makefile_builder\\mkb_parser.pyc'
p234
F1409106506.0
sS'c:\\marmalade\\7.4\\s3e\\makefile_builder\\templates\\qmake_user.py'
p235
F1409103204.0
sS'c:\\marmalade\\7.4\\s3e\\makefile_builder\\docs\\mkb.defines.txt'
p236
F1409103204.0
sS'c:\\marmalade\\7.4\\s3e\\makefile_builder\\deployment.pyc'
p237
F1409106506.0
sS'c:\\marmalade\\7.4\\s3e\\makefile_builder\\plugins\\wp8_wp8.pyc'
p238
F1409106506.0
sS'c:\\marmalade\\7.4\\s3e\\makefile_builder\\plugins\\linux_scons.pyc'
p239
F1409106506.0
sS'c:\\marmalade\\7.4\\s3e\\makefile_builder\\plugins\\s3e_web.pyc'
p240
F1409106506.0
sS'c:\\marmalade\\7.4\\s3e\\makefile_builder\\plugins\\S3EEmitter.pyc'
p241
F1409106506.0
sS'c:\\marmalade\\7.4\\s3e\\makefile_builder\\plugins\\Win8Emitter.pyc'
p242
F1409106506.0
sS'c:\\marmalade\\7.4\\s3e\\makefile_builder\\templates\\xcode4_arm.xcscheme'
p243
F1409103204.0
sS'c:\\marmalade\\7.4\\s3e\\makefile_builder\\plugins\\vc6_utils.pyc'
p244
F1409106506.0
sS'c:\\marmalade\\7.4\\s3e\\makefile_builder\\templates\\wp8_vcxproj.pyc'
p245
F1409106508.0
sS'c:\\marmalade\\7.4\\s3e\\makefile_builder\\templates\\xcode4.xcscheme'
p246
F1409103204.0
sS'c:\\marmalade\\7.4\\s3e\\makefile_builder\\plugins\\MakeEmitter.pyc'
p247
F1409106506.0
sS'c:\\marmalade\\7.4\\s3e\\makefile_builder\\plugins\\java.pyc'
p248
F1409106506.0
sS'c:\\marmalade\\7.4\\s3e\\makefile_builder\\plugins\\XcodeEmitter.pyc'
p249
F1410825732.62259
sS'c:\\marmalade\\7.4\\s3e\\makefile_builder\\plugins\\XcodeEmitter.py'
p250
F1409103204.0
sS'c:\\marmalade\\7.4\\s3e\\makefile_builder\\mkb_globals.pyc'
p251
F1409106506.0
sS'c:\\marmalade\\7.4\\s3e\\makefile_builder\\tool_launcher.exe'
p252
F1409103760.0
sS'c:\\marmalade\\7.4\\s3e\\makefile_builder\\mkb_util.pyc'
p253
F1409106506.0
sS'c:\\marmalade\\7.4\\s3e\\makefile_builder\\plugins\\xcode4_schememanagement.pyc'
p254
F1410825732.6686263
sS'c:\\marmalade\\7.4\\s3e\\makefile_builder\\templates\\ws8_sln.pyc'
p255
F1409106508.0
sS'c:\\marmalade\\7.4\\s3e\\makefile_builder\\templates\\win32_sln.pyc'
p256
F1409106506.0
sS'c:\\marmalade\\7.4\\s3e\\makefile_builder\\templates\\wp81_ext_csproj.pyc'
p257
F1409106508.0
sS'c:\\marmalade\\7.4\\s3e\\makefile_builder\\plugins\\s3e_wp81.pyc'
p258
F1409106506.0
sS'c:\\marmalade\\7.4\\s3e\\makefile_builder\\plugins\\s3e_wp8.pyc'
p259
F1409106506.0
sS'c:\\marmalade\\7.4\\s3e\\makefile_builder\\templates\\qmake.py'
p260
F1409103204.0
sS'c:\\marmalade\\7.4\\s3e\\makefile_builder\\templates\\gdb_start.txt'
p261
F1409103204.0
sS'c:\\marmalade\\7.4\\s3e\\makefile_builder\\templates'
p262
F1410731771.2182727
sS'c:\\marmalade\\7.4\\s3e\\makefile_builder\\templates\\ws8_ext_csproj.pyc'
p263
F1409106508.0
sS'c:\\marmalade\\7.4\\s3e\\makefile_builder\\templates\\win8_csproj_user.pyc'
p264
F1409106508.0
sS'c:\\marmalade\\7.4\\s3e\\makefile_builder\\templates\\vc7_suo.pyc'
p265
F1409106506.0
sS'c:\\marmalade\\7.4\\s3e\\makefile_builder\\plugins\\VisualStudioEmitter.pyc'
p266
F1409106506.0
sS'c:\\marmalade\\7.4\\s3e\\makefile_builder\\templates\\linker_script'
p267
F1409103204.0
sS'c:\\marmalade\\7.4\\s3e\\makefile_builder\\docs\\deprecated.options.txt'
p268
F1409103204.0
sS'c:\\marmalade\\7.4\\s3e\\makefile_builder\\plugins\\s3e_xcode.pyc'
p269
F1410825733.5366743
sS'c:\\marmalade\\7.4\\s3e\\makefile_builder\\plugins\\s3e_ws8.pyc'
p270
F1409106506.0
sS'c:\\marmalade\\7.4\\s3e\\makefile_builder\\templates\\xcode4_DeployTool.xcscheme'
p271
F1409103204.0
sS'c:\\marmalade\\7.4\\s3e\\makefile_builder\\templates\\ws8_csproj_user.pyc'
p272
F1409106508.0
sS'c:\\marmalade\\7.4\\s3e\\makefile_builder\\plugins\\osx_scons.pyc'
p273
F1409106506.0
sS'c:\\marmalade\\7.4\\s3e\\makefile_builder\\templates\\ws81_csproj.pyc'
p274
F1409106508.0
sS'c:\\marmalade\\7.4\\s3e\\makefile_builder\\templates\\wp8_sln.pyc'
p275
F1409106508.0
sS'c:\\marmalade\\7.4\\s3e\\makefile_builder\\docs'
p276
F1410731771.2993295
sS'c:\\marmalade\\7.4\\s3e\\makefile_builder\\plugins\\ws8_ws8.pyc'
p277
F1409106506.0
sS'c:\\marmalade\\7.4\\s3e\\makefile_builder\\docs\\deployment_options.txt'
p278
F1409103204.0
sS'c:\\marmalade\\7.4\\s3e\\makefile_builder\\templates\\win32_vcxproj_filters.pyc'
p279
F1409106506.0
sS'c:\\marmalade\\7.4\\s3e\\makefile_builder\\templates\\win32_dsw.pyc'
p280
F1409106506.0
sS'c:\\marmalade\\7.4\\s3e\\makefile_builder\\plugins\\s3e_ws81.pyc'
p281
F1409106506.0
sS'c:\\marmalade\\7.4\\s3e\\makefile_builder\\plugins\\SConsEmitter.pyc'
p282
F1409106506.0
sS'c:\\marmalade\\7.4\\s3e\\makefile_builder\\templates\\wp81_vcxproj.pyc'
p283
F1409106508.0
sS'c:\\marmalade\\7.4\\s3e\\makefile_builder\\plugins\\win8_utils.pyc'
p284
F1409106506.0
sS'c:\\marmalade\\7.4\\s3e\\makefile_builder\\templates\\template.opt'
p285
F1409103204.0
sS'c:\\marmalade\\7.4\\s3e\\makefile_builder\\plugins\\vc7_utils.pyc'
p286
F1409106506.0
sS'c:\\marmalade\\7.4\\s3e\\makefile_builder\\templates\\win32_dsp.pyc'
p287
F1409106506.0
sS'c:\\marmalade\\7.4\\s3e\\makefile_builder\\plugins\\s3e_make.pyc'
p288
F1409106506.0
sS'c:\\marmalade\\7.4\\s3e\\makefile_builder\\templates\\rvct_linker_script'
p289
F1409103204.0
sS'c:\\marmalade\\7.4\\s3e\\makefile_builder\\templates\\win8_csproj.pyc'
p290
F1409106508.0
sS'c:\\marmalade\\7.4\\s3e\\makefile_builder\\templates\\xcode.py'
p291
F1409103204.0
sS'c:\\marmalade\\7.4\\s3e\\makefile_builder\\templates\\ws8_vcxproj.pyc'
p292
F1409106508.0
sS'c:\\marmalade\\7.4\\s3e\\makefile_builder\\templates\\wp81_csproj.pyc'
p293
F1409106508.0
sS'c:\\marmalade\\7.4\\s3e\\makefile_builder\\mkb_upstream.pyc'
p294
F1409106506.0
sS'c:\\marmalade\\7.4\\s3e\\makefile_builder\\templates\\win32_vcxproj.pyc'
p295
F1409106506.0
sS'c:\\marmalade\\7.4\\s3e\\makefile_builder\\templates\\ws8_csproj.pyc'
p296
F1409106508.0
sS'c:\\marmalade\\7.4\\s3e\\makefile_builder\\docs\\parse_options.pyc'
p297
F1409106508.0
sS'c:\\marmalade\\7.4\\s3e\\makefile_builder\\templates\\Info.plist'
p298
F1409103204.0
sS'c:\\marmalade\\7.4\\s3e\\makefile_builder\\templates\\wp81_sln.pyc'
p299
F1409106508.0
sS'c:\\marmalade\\7.4\\s3e\\makefile_builder\\templates\\ws81_csproj_user.pyc'
p300
F1409106508.0
sS'c:\\marmalade\\7.4\\s3e\\makefile_builder\\templates\\ws81_vcxproj.pyc'
p301
F1409106508.0
sccopy_reg
_reconstructor
p302
(cmkb_main
MkbFile
p303
c__builtin__
object
p304
Ntp305
Rp306
(dp307
g5
(lp308
sS'target_name'
p309
S'MonkFlip'
p310
sS'current_file'
p311
g120
sS'package_path'
p312
(lp313
sS'post_build'
p314
(lp315
(lp316
S'c:/marmalade/7.4/s3e/tools'
p317
aS'C:\\Marmalade\\7.4\\s3e\\python\\python.exe .\\process_map.py "$(TargetPath)"'
p318
aa(S'c:\\marmalade\\7.4\\s3e\\bin'
p319
S'"s3e_plink" -l "$(TargetPath)" '
p320
g151
tp321
asS'librarys'
p322
(lp323
g302
(cmkb_main
Library
p324
g304
Ntp325
Rp326
(dp327
S'name'
p328
S'vc6_compat.lib'
p329
sS'expand_name'
p330
I00
sS'include_spec_rvct_objs'
p331
(lp332
sS'include_all_objs'
p333
I00
sS'share_arm'
p334
I00
sS'arch'
p335
S'x86'
p336
sS'nodebug'
p337
I00
sg36
Nsbag302
(g324
g304
Ntp338
Rp339
(dp340
g328
S'iw2d'
p341
sg330
I01
sg331
(lp342
sg333
Nsg334
Nsg335
Nsg337
I00
sg36
Nsbag302
(g324
g304
Ntp343
Rp344
(dp345
g328
S'ATI_Compress_MT_VC7.lib'
p346
sg330
I00
sg331
g342
sg333
Nsg334
Nsg335
S'x86'
p347
sg337
I00
sg36
Nsbag302
(g324
g304
Ntp348
Rp349
(dp350
g328
S'iwgx'
p351
sg330
I01
sg331
g342
sg333
Nsg334
Nsg335
Nsg337
I00
sg36
Nsbag302
(g324
g304
Ntp352
Rp353
(dp354
g328
S'iwgl'
p355
sg330
I01
sg331
g342
sg333
Nsg334
Nsg335
Nsg337
I00
sg36
Nsbag302
(g324
g304
Ntp356
Rp357
(dp358
g328
S'iwutil'
p359
sg330
I01
sg331
g342
sg333
Nsg334
Nsg335
Nsg337
I00
sg36
Nsbag302
(g324
g304
Ntp360
Rp361
(dp362
g328
S'jpeg'
p363
sg330
I01
sg331
g342
sg333
Nsg334
Nsg335
Nsg337
I00
sg36
Nsbag302
(g324
g304
Ntp364
Rp365
(dp366
g328
S'z'
p367
sg330
I01
sg331
g342
sg333
Nsg334
Nsg335
Nsg337
I00
sg36
Nsbag302
(g324
g304
Ntp368
Rp369
(dp370
g328
S'png'
p371
sg330
I01
sg331
g342
sg333
Nsg334
Nsg335
Nsg337
I00
sg36
Nsbag302
(g324
g304
Ntp372
Rp373
(dp374
g328
S'iwgeom'
p375
sg330
I01
sg331
g342
sg333
Nsg334
Nsg335
Nsg337
I00
sg36
Nsbag302
(g324
g304
Ntp376
Rp377
(dp378
g328
S'iwresmanager'
p379
sg330
I01
sg331
g342
sg333
Nsg334
Nsg335
Nsg337
I00
sg36
Nsbag302
(g324
g304
Ntp380
Rp381
(dp382
g328
S'iwgxfont'
p383
sg330
I01
sg331
g342
sg333
Nsg334
Nsg335
Nsg337
I00
sg36
Nsbag302
(g324
g304
Ntp384
Rp385
(dp386
g328
S'tiniconv'
p387
sg330
I01
sg331
g342
sg333
Nsg334
Nsg335
Nsg337
I00
sg36
Nsbag302
(g324
g304
Ntp388
Rp389
(dp390
g328
S's3e_cpp'
p391
sg330
I01
sg331
g332
sg333
I00
sg334
I00
sg335
Nsg337
I00
sg36
Nsbag302
(g324
g304
Ntp392
Rp393
(dp394
g328
S's3e'
p395
sg330
I01
sg331
(lp396
S'iwcrt.o'
p397
asg333
I00
sg334
I00
sg335
Nsg337
I00
sg36
Nsbag302
(g324
g304
Ntp398
Rp399
(dp400
g328
g48
sg330
I01
sg331
g332
sg333
I00
sg334
I00
sg335
S'x86'
p401
sg337
I01
sg36
Nsbag302
(g324
g304
Ntp402
Rp403
(dp404
g328
g48
sg330
I01
sg331
g332
sg333
I00
sg334
I00
sg335
S'!x86'
p405
sg337
I01
sg36
Nsbag302
(g324
g304
Ntp406
Rp407
(dp408
g328
S'stdc++'
p409
sg330
I00
sg331
g332
sg333
I00
sg334
I00
sg335
S'mips'
p410
sg337
I00
sg36
Nsbag302
(g324
g304
Ntp411
Rp412
(dp413
g328
S'c'
p414
sg330
I00
sg331
g332
sg333
I00
sg334
I00
sg335
S'mips'
p415
sg337
I00
sg36
Nsbag302
(g324
g304
Ntp416
Rp417
(dp418
g328
S'm'
p419
sg330
I00
sg331
g332
sg333
I00
sg334
I00
sg335
S'mips'
p420
sg337
I00
sg36
Nsbag302
(g324
g304
Ntp421
Rp422
(dp423
g328
S'gcc'
p424
sg330
I00
sg331
g332
sg333
I00
sg334
I00
sg335
S'mips'
p425
sg337
I00
sg36
Nsbag302
(g324
g304
Ntp426
Rp427
(dp428
g328
S'stdc++'
p429
sg330
I00
sg331
g332
sg333
I00
sg334
I00
sg335
S'gcc_x86_android'
p430
sg337
I00
sg36
Nsbag302
(g324
g304
Ntp431
Rp432
(dp433
g328
g414
sg330
I00
sg331
g332
sg333
I00
sg334
I00
sg335
S'gcc_x86_android'
p434
sg337
I00
sg36
Nsbag302
(g324
g304
Ntp435
Rp436
(dp437
g328
g419
sg330
I00
sg331
g332
sg333
I00
sg334
I00
sg335
S'gcc_x86_android'
p438
sg337
I00
sg36
Nsbag302
(g324
g304
Ntp439
Rp440
(dp441
g328
g424
sg330
I00
sg331
g332
sg333
I00
sg334
I00
sg335
S'gcc_x86_android'
p442
sg337
I00
sg36
NsbasS'library_paths'
p443
(lp444
g302
(cmkb_main
LibraryPath
p445
g304
Ntp446
Rp447
(dp448
S'expand_path'
p449
I01
sg328
S'c:/marmalade/7.4/modules/iw2d'
p450
sbag302
(g445
g304
Ntp451
Rp452
(dp453
g449
I00
sg328
S'c:/marmalade/7.4/modules/iwgx/atitools'
p454
sbag302
(g445
g304
Ntp455
Rp456
(dp457
g449
I01
sg328
S'c:/marmalade/7.4/modules/iwgx'
p458
sbag302
(g445
g304
Ntp459
Rp460
(dp461
g449
I01
sg328
S'c:/marmalade/7.4/modules/iwgl'
p462
sbag302
(g445
g304
Ntp463
Rp464
(dp465
g449
I01
sg328
S'c:/marmalade/7.4/modules/iwutil'
p466
sbag302
(g445
g304
Ntp467
Rp468
(dp469
g449
I01
sg328
S'c:/marmalade/7.4/modules/third_party/libjpeg'
p470
sbag302
(g445
g304
Ntp471
Rp472
(dp473
g449
I01
sg328
S'c:/marmalade/7.4/modules/third_party/zlib'
p474
sbag302
(g445
g304
Ntp475
Rp476
(dp477
g449
I01
sg328
S'c:/marmalade/7.4/modules/third_party/libpng'
p478
sbag302
(g445
g304
Ntp479
Rp480
(dp481
g449
I01
sg328
S'c:/marmalade/7.4/modules/iwgeom'
p482
sbag302
(g445
g304
Ntp483
Rp484
(dp485
g449
I01
sg328
S'c:/marmalade/7.4/modules/iwresmanager'
p486
sbag302
(g445
g304
Ntp487
Rp488
(dp489
g449
I01
sg328
S'c:/marmalade/7.4/modules/iwgxfont'
p490
sbag302
(g445
g304
Ntp491
Rp492
(dp493
g449
I01
sg328
S'c:/marmalade/7.4/modules/third_party/tiniconv'
p494
sbag302
(g445
g304
Ntp495
Rp496
(dp497
g449
I01
sg328
S'c:/marmalade/7.4/s3e'
p498
sbasS'macros'
p499
(dp500
S'IW_USE_CALLSTACK'
p501
NsS'IW_SDK'
p502
NsS'I3D_PLATFORM_S3E'
p503
NsS'__S3E__'
p504
NsS'IW_MKF_LIBJPEG'
p505
NsS'I3D_OS_S3E'
p506
NsS'IW_MKF_PVRTEXTOOL'
p507
NsS'IW_MKF_TINICONV'
p508
NsS'IW_APP_VERSION'
p509
S'"1.0"'
p510
sS'IW_MKF_IWRESMANAGER'
p511
NsS'IW_MKF_IWUTIL'
p512
NsS'IW_PLATFORM_S3E'
p513
NsS'IW_ASSERTION_CHANNEL_2D'
p514
S'1'
p515
sS'IW_APP_NAME'
p516
S'"MonkFlip"'
p517
sS'IW_MKF_IWGXFONT'
p518
NsS'IW_MKF_ZLIB'
p519
NsS'IW_MKF_IWGX'
p520
NsS'IW_USE_ASSERTIONS'
p521
NsS'_CRT_SECURE_NO_DEPRECATE'
p522
NsS'IW_MKF_IWGL'
p523
NsS'IW_MKF_LIBPNG'
p524
NsS'IW_DEBUG'
p525
NsS'IW_USE_TRACING'
p526
NsS'IW_TRACE_CHANNEL_PVRTEXTOOL'
p527
g515
sS'S3E_INCLUDE_LEGACY'
p528
NsS'IW_TRACE_CHANNEL_PVRTEXTOOL_VERBOSE'
p529
S'2'
p530
sS'IW_MKF_IW2D'
p531
NsS'IW_MKF_IWGEOM'
p532
NsS'IW_ASSERTION_CHANNEL_PVRTEXTOOL'
p533
g515
ssS'done_warnings'
p534
(dp535
sS'subprojects'
p536
(dp537
g176
S'zlib'
p538
sg174
S'libjpeg'
p539
sg181
S'tiniconv'
p540
sg171
S'iwgx'
p541
sg177
S'iwgeom'
p542
sg173
S'iwutil'
p543
sg170
S'iw2d'
p544
sg180
S'iwgxfont'
p545
sg178
S'iwresmanager'
p546
sg175
S'libpng'
p547
sg172
S'iwgl'
p548
sg179
S'PVRTexTool'
p549
ssS'deployments'
p550
(dp551
S'Default'
p552
g302
(cdeployment
Deployment
p553
g304
Ntp554
Rp555
(dp556
S'got_version'
p557
I0
sS'assets'
p558
g552
sS'mkb'
p559
g306
sS'target'
p560
Nsg335
(lp561
sS'options'
p562
(dp563
S'iphone-link-lib'
p564
(lp565
sS'game-icf'
p566
NsS'android-tm'
p567
NsS'winmobile-icon32'
p568
NsS'ws8-logo-image150x150'
p569
NsS'wp81-logo-image150x150'
p570
NsS'ws81-product-version'
p571
NsS'osx-ext-dll'
p572
(lp573
S'c:/marmalade/7.4/extensions/pvrtextool/lib/osx/libPVRTexTool.dylib'
p574
asS'iphone-provisioning-profile'
p575
NsS'ws8-splash-screen-image620x300'
p576
NsS'wp81-extra-pri'
p577
(lp578
sS'ws8-ext-capabilities'
p579
(lp580
sS'android-icon-hdpi'
p581
NsS'brew-icon-large'
p582
NsS'iphone-splash-full-orient'
p583
NsS'wp8-tile-fliptemplate-supports-large'
p584
NsS'iphone-show-status-bar'
p585
NsS'roku-requires-mkv'
p586
NsS'long-caption'
p587
NsS'android-pkgname'
p588
NsS'wp81-publisher-display-name'
p589
NsS'blackberry-permissions-read-device-identifying-information'
p590
NsS'ws81-certificate-end-date'
p591
NsS'psp-dlgcontentid'
p592
NsS'iphone-minimum-ios-version'
p593
NsS'target-folder'
p594
NsS'tizen-dist1-CA-path'
p595
NsS'symbian-icon2-format'
p596
NsS'tizen-author-key'
p597
NsS'firefoxos-icon-128X128'
p598
NsS'iphone-region'
p599
NsS'uiq3-icon3-mask'
p600
NsS'brew-encoding'
p601
NsS'android-x86'
p602
NsS'nds-initialcode'
p603
NsS'iphone-persistent-wifi'
p604
NsS'psp-snd0'
p605
NsS'roku-icon-focus-hd'
p606
NsS'winmobile-install-folder'
p607
NsS'android-external-res'
p608
(lp609
sS'ws8-product-version'
p610
NsS'brew-priviledges'
p611
NsS'iphone-icon-ipad-search'
p612
NsS'iphone-icon-ipad'
p613
NsS'roku-hidden'
p614
NsS'psp-titlename'
p615
NsS'wp81-product-version'
p616
NsS'symbian-icon1-mask'
p617
NsS'psp-parentallevel'
p618
NsS'splashscreen-use-all'
p619
NsS'wp8-author'
p620
NsS'symbian-disable-ecompxl'
p621
NsS'splashscreen-auto-onblack'
p622
NsS'win32-ext-dll'
p623
(lp624
S'c:/marmalade/7.4/extensions/pvrtextool/lib/win32/PVRTexTool.dll'
p625
asS'iphone-development-key'
p626
NsS'winmobile-icon48'
p627
NsS'android-unsigned'
p628
NsS'osx-appstore-category'
p629
NsS'version-revision'
p630
NsS'roku-icon-focus-sd'
p631
NsS'android-keystore'
p632
NsS'winmobile-png90'
p633
NsS'iphone-icon-ipad-high-res'
p634
NsS'iphone-disable-ipad'
p635
NsS'wp8-product-id'
p636
NsS'ws81-splash-screen-background'
p637
NsS'wp8-ext-capabilities'
p638
(lp639
sS'iphone-ipad-only'
p640
NsS'symbian-icon1-mask-black'
p641
NsS'iphone-nosign'
p642
NsS'iphone-bundle-localisations'
p643
NsS'winmobile-png60'
p644
NsS'blackberry-permissions-access-shared'
p645
NsS'blackberry-author'
p646
NsS'android-icon-xxxhdpi'
p647
NsS'olddeploytoolstyle'
p648
NsS'android_icon_gallery'
p649
NsS'wp81-splash-screen-background'
p650
NsS'winmobile-cab-compress'
p651
NsS'iphone-info-plist'
p652
NsS'ws81-ext-managed-dll'
p653
(lp654
sS'playbook-cskpass'
p655
NsS'ws8-distribution-pfx-password'
p656
NsS'symbian-key'
p657
NsS'app-icf'
p658
NsS'blackberry-storepass'
p659
NsS'wp8-tile-fliptemplate-back-title'
p660
NsS'brew-compress-loader'
p661
NsS'win32-pref-windowposy'
p662
NsS'win32-pref-windowposx'
p663
NsS'roku-requires-audiometadata'
p664
NsS'wp8-exclude-low-mem'
p665
NsS'iphone-icon-ipad-search-high-res'
p666
NsS'iphone-link-libdir'
p667
(lp668
sS'wp81-ext-capabilities'
p669
(lp670
sS'blackberry-permissions-read-geolocation'
p671
NsS'ws81-ext-device-capabilities'
p672
(lp673
sS'tizen-signed'
p674
NsS'android-extra-application-manifest'
p675
(lp676
sS'ws8-ext-native-dll'
p677
(lp678
sS'symbian-icon2-mask'
p679
NsS'iphone-backgroundmode-audio'
p680
NsS'webos-memory'
p681
NsS'android-keypass'
p682
NsS'name'
p683
NsS'uiq3-icon2-format'
p684
NsS'roku-splash-screen-sd'
p685
NsS'auto-derbh'
p686
NsS'roku-icon-side-sd'
p687
NsS'android-external-assets'
p688
(lp689
sS'nds-publicsavedatasize'
p690
NsS'splashscreen'
p691
NsS'brew-mif'
p692
NsS'iphone-icon-settings-high-res'
p693
NsS'android-manifest'
p694
NsS'ws81-splash-screen-image620x300'
p695
NsS'wp81-product-name'
p696
NsS's3e-compression'
p697
NsS'tizen-author-password'
p698
NsS'wp8-tile-fliptemplate-back-content'
p699
NsS'blackberry-extra-descriptor'
p700
(lp701
sS'symbian-icon1'
p702
NsS'symbian-icon2'
p703
NsS'android-extra-styles-file'
p704
NsS'wp81-publisher-id'
p705
NsS'nds-bannertitle-jp'
p706
NsS'wp81-logo-image44x44'
p707
NsS'osx-sign-for-store'
p708
NsS'symbian7-uid'
p709
NsS'wp8-tile-fliptemplate-large-back-content'
p710
NsS'wp81-phone-publisher-id'
p711
NsS'nds-bannertitle-cn'
p712
NsS'iphone-distribution-key'
p713
NsS'android-icon-gallery'
p714
NsS'blackberry-keystore'
p715
NsS'ws8-extra-res'
p716
(lp717
sS'caption'
p718
NsS'android-extra-manifest'
p719
(lp720
sS'wp81-ext-sdk-ref'
p721
(lp722
sS'android-icon-xxhdpi'
p723
NsS'version-minor'
p724
NsS'iphone-link-libdirs'
p725
(lp726
sS'iphone-icon-large'
p727
NsS'symbian-keypwd'
p728
NsS'symbian8-uid'
p729
NsS'symbian-cert-key'
p730
NsS'winmobile-ampd-part-number'
p731
NsS'arch'
p732
NsS'nds-romheadertemplate'
p733
NsS'webos-icon'
p734
NsS'wp81-ext-device-capabilities'
p735
(lp736
sS'psp-dlgprotectdocument'
p737
NsS'ws8-splash-screen-background'
p738
NsS'android-icon-mdpi'
p739
NsS'nds-icon'
p740
NsS'ws8-custom-manifest-fill'
p741
NsS'iphone-development-cert'
p742
NsS'blackberry-phone-icon'
p743
NsS'iphone-enable-4inch-retina'
p744
NsS'ws8-custom-manifest'
p745
NsS'version-major'
p746
NsS'wp8-genre-isgame'
p747
NsS'uiq3-uid'
p748
NsS'iphone-splash-retina-generate'
p749
NsS'tizen-hw-acceleration'
p750
NsS'iphone_bundle_localisations'
p751
NsS'tizen-dist1-key'
p752
NsS'wp81-custom-manifest-fill'
p753
NsS'wp8-custom-manifest'
p754
NsS'nds-bannertitle-ge'
p755
NsS'iphone-sign-for-distribution'
p756
NsS'wp8-tile-fliptemplate-medium-back-image'
p757
NsS'wp8-publisher-id'
p758
NsS'icon'
p759
NsS'wp8-exclude-wxga'
p760
NsS'wp81-identity-name'
p761
NsS'uiq3-icon2-mask'
p762
NsS'iphone-splashscreen-portrait'
p763
NsS'iphone-icon-high-res'
p764
NsS'ws81-distribution-pfx-password'
p765
NsS'playbook-author'
p766
NsS'android-icon-xhdpi'
p767
NsS'linux-ext-lib'
p768
(lp769
sS'blackberry-permissions-access-internet'
p770
NsS'wp8-exclude-720p'
p771
NsS'lgtv-use-drm'
p772
NsS'symbian-platsecflags'
p773
NsS'ws8-description'
p774
NsS'blackberry-playbook-icon'
p775
NsS'copyright'
p776
NsS'win32-gles-directory'
p777
NsS'version'
p778
NsS'ws81-logo-image150x150'
p779
NsS'osx-signing-identity-app'
p780
NsS'tizen-project-url'
p781
NsS'symbian-icon-svg'
p782
NsS'android-aliasname'
p783
NsS'psp-dlgmanual'
p784
NsS'brew-uid'
p785
NsS'symbian-locationsupport'
p786
NsS'wp81-logo-image50x50'
p787
NsS'ws8-ext-managed-dll'
p788
(lp789
sS'nds-bannertitle-it'
p790
NsS'ws81-custom-manifest-fill'
p791
NsS'ws8-ext-sdk-manifest-part'
p792
(lp793
sS'uiq3-icon1-mask'
p794
NsS'winmobile-icon16'
p795
NsS'ws8-product-name'
p796
NsS'blackberry-cskpass'
p797
NsS'winmobile-start-menu-folder'
p798
NsS'brew-clsid'
p799
NsS'roku-requires-bluetooth'
p800
NsS'ws8-ext-device-capabilities'
p801
(lp802
sS'blackberry-permissions-use-camera'
p803
NsS'ws81-extra-pri'
p804
(lp805
sS'iphone-prerendered-icon'
p806
NsS'iphone-appid'
p807
NsS'ws8-identity-name'
p808
NsS'tizen-dist2-CA-path'
p809
NsS'android-external-jars'
p810
(lp811
sS'winmobile-icon64'
p812
NsS'blackberry-permissions-post-notification'
p813
NsS'winmobile-setup-dll'
p814
NsS'firefoxos-manifest'
p815
NsS'win8-winrt-extra-res'
p816
(lp817
sS'wp81-ext-sdk-manifest-part'
p818
(lp819
sS'symbian9-uid'
p820
NsS'iphone-icon-ipad-ios7'
p821
NsS'winmobile-trace-file'
p822
NsS'roku-splash-color'
p823
NsS'psp-appversion'
p824
NsS'ws8-publisher-id'
p825
NsS'android-supports-gl-texture'
p826
(lp827
sS'winmobile-png45'
p828
NsS'wp81-extra-res'
p829
(lp830
sS'android-storepass'
p831
NsS'osx-signing-identity-inst'
p832
NsS'android-custom-activity'
p833
NsS'psp-discversion'
p834
NsS'wp81-ext-managed-dll'
p835
(lp836
sS'psp-copyright'
p837
NsS'embed-icf'
p838
NsS'tizen-manifest'
p839
NsS'osx-icon'
p840
NsS'webos-appinfo'
p841
NsS'psp-dlghealthwarning'
p842
NsS'webos-appid'
p843
NsS'roku-icon-side-hd'
p844
NsS'iphone-icon-ipad-search-high-res-ios7'
p845
NsS'ws81-ext-sdk-manifest-part'
p846
(lp847
sS'loader_name_prefix'
p848
NsS'nds-titlename'
p849
NsS'ws81-logo-image50x50'
p850
NsS'wp81-custom-manifest'
p851
NsS'osx-entitlements-plist'
p852
NsS'psp-dlgicon0'
p853
NsS'winmobile-nouninstall'
p854
NsS'psp-discid'
p855
NsS'tizen-dist2-password'
p856
NsS'ws8-ext-sdk-ref'
p857
(lp858
sS'iphone-extra-string'
p859
(lp860
sS'version-string'
p861
NsS'iphone-icon-high-res-ios7'
p862
NsS'blackberry-permissions-record-audio'
p863
NsS'ws8-certificate-end-date'
p864
NsS'tizen-so'
p865
(lp866
sS'wp8-tile-fliptemplate-small-image'
p867
NsS'playbook-authorid'
p868
NsS'iphone-signing-identity'
p869
NsS'roku-persist-quota'
p870
NsS'nds-bannertitle-fr'
p871
NsS'ws8-distribution-pfx'
p872
NsS'ws8-publisher-display-name'
p873
NsS'brew-icon-small'
p874
NsS'psp-dlgpic2'
p875
NsS'psp-dlgpic0'
p876
NsS'psp-pic0'
p877
NsS'psp-pic1'
p878
NsS'win32-pref-windowtitle'
p879
NsS'psp-icon0'
p880
NsS'psp-icon1'
p881
NsS'ws81-identity-name'
p882
NsS'winmobile-icon'
p883
NsS'iphone-no-splash'
p884
NsS'iphone-splash'
p885
NsS'iphone-app-fonts'
p886
NsS'wp8-ext-native-dll'
p887
(lp888
sS'wp81-splash-screen-image480x800'
p889
NsS'ws81-distribution-cer'
p890
NsS'uiq3-icon2'
p891
NsS'uiq3-icon3'
p892
NsS'uiq3-icon1'
p893
NsS'uiq3-icon1-format'
p894
NsS'ws8-logo-image50x50'
p895
NsS'symbian-icon2-mask-black'
p896
NsS'symbian-run-on-install'
p897
NsS'wp81-description'
p898
NsS'ws81-publisher-display-name'
p899
NsS'firefoxos-xulrunner'
p900
NsS'symbian-soundrecordsupport'
p901
NsS'nds-bannertitle-sp'
p902
NsS'psp-producer'
p903
NsS'iphone-apple-wwdr-cert'
p904
NsS'android-icon-nonstandard'
p905
NsS'win32-pref-processtitle'
p906
NsS'nds-bannertitle-hn'
p907
NsS'tizen-dist2-key'
p908
NsS'brew-depends'
p909
NsS'ws81-custom-manifest'
p910
NsS'iphone-icon-ipad-search-ios7'
p911
NsS'brew-icon-medium'
p912
NsS'iphone-bundle-url-name'
p913
NsS'wp8-tile-fliptemplate-large-front-image'
p914
NsS'tizen-dist2-CA-root-path'
p915
NsS'ws81-description'
p916
NsS'uiq3-icon3-format'
p917
NsS'ws81-logo-image30x30'
p918
NsS'win8-phone-extra-res'
p919
(lp920
sS'iphone-signing-host'
p921
NsS'tizen-icon'
p922
NsS'osx-info-plist'
p923
NsS'symbian-icon1-format'
p924
NsS'win8-store-extra-res'
p925
(lp926
sS'blackberry-authorid'
p927
NsS'ws81-publisher-id'
p928
NsS'ws81-distribution-pfx'
p929
NsS'wp8-description'
p930
NsS'iphone-link-opts'
p931
(lp932
sS'ws81-ext-sdk-ref'
p933
(lp934
sS'roku-splash-min-time'
p935
NsS'wp8-tile-fliptemplate-medium-front-image'
p936
NsS'provider'
p937
NsS'playbook-keystore'
p938
NsS'tizen-appid'
p939
NsS'wp8-extra-res'
p940
(lp941
sS'symbian-osexecsupport'
p942
NsS'android-install-location'
p943
NsS'nds-privatesavedatasize'
p944
NsS'playbook-storepass'
p945
NsS'android-icon-ldpi'
p946
NsS'manufacturer'
p947
NsS'itunes-artwork'
p948
NsS'iphone-extra-sections'
p949
NsS'ws81-product-name'
p950
NsS'ws81-ext-native-dll'
p951
(lp952
sS'ws8-extra-pri'
p953
(lp954
sS'win32-icon'
p955
NsS'ws8-logo-image30x30'
p956
NsS'wp8-ext-managed-dll'
p957
(lp958
sS'iphone-splashscreen-landscape'
p959
NsS'symbian-maxheapsize'
p960
NsS'nds-makercode'
p961
NsS'priv-sign-key'
p962
NsS'networking'
p963
NsS'android-icon'
p964
NsS'iphone-icon-settings'
p965
NsS'wp81-phone-product-id'
p966
NsS'firefoxos-icon-60X60'
p967
NsS'iphone-distribution-cert'
p968
NsS'android_extra_strings'
p969
NsS'nds-bannertitle-en'
p970
NsS'wp8-tile-fliptemplate-title'
p971
NsS'android-so'
p972
(lp973
sS'wp8-higher-mem'
p974
NsS'wp8-ext-sdk-ref'
p975
(lp976
sS'roku-splash-screen-hd'
p977
NsS'iphone-bundle-url-schemes'
p978
NsS'roku-screensaver-private'
p979
NsS'osx-extra-res'
p980
(lp981
sS'ws81-extra-res'
p982
(lp983
sS'playbook-icon'
p984
NsS'uid'
p985
NsS'pkguid-as-uid'
p986
NsS'wp81-ext-native-dll'
p987
(lp988
sS'tizen-dist1-password'
p989
NsS'roku-screensaver-title'
p990
NsS'osx-minimum-osx-version'
p991
NsS'symbian-cert'
p992
NsS'iphone-icon'
p993
NsS'ws81-ext-capabilities'
p994
(lp995
sS'ws8-distribution-cer'
p996
NsS'playbook-access-shared'
p997
NsS'iphone-icon-ipad-high-res-ios7'
p998
NsS'iphone-link-libs'
p999
(lp1000
sS'wp8-exclude-wvga'
p1001
NsS'assets'
p1002
NsS'wp8-tile-fliptemplate-large-back-image'
p1003
NsS'wp8-custom-manifest-fill'
p1004
NsS'pub-sign-key'
p1005
NsS'android-extra-strings'
p1006
NsS'tizen-author-CA-path'
p1007
Nssg328
g552
sbssS'platform'
p1008
S'S3E'
p1009
sg63
S'1.0'
p1010
sS'arcade_platform'
p1011
g4
sS'extensions'
p1012
(dp1013
sS'source_groups_tree'
p1014
(dp1015
S'(libpng)'
p1016
(dp1017
S'h'
p1018
(dp1019
S'c:/marmalade/7.4/modules/third_party/libpng/h/png.h'
p1020
(lp1021
I1
a(dp1022
asS'c:/marmalade/7.4/modules/third_party/libpng/h/pngconf.h'
p1023
(lp1024
I1
ag1022
assS'c:/marmalade/7.4/modules/third_party/libpng/libpng.mkf'
p1025
(lp1026
I1
a(dp1027
assS'(libjpeg)'
p1028
(dp1029
g1018
(dp1030
S'c:/marmalade/7.4/modules/third_party/libjpeg/h/jerror.h'
p1031
(lp1032
I1
a(dp1033
asS'c:/marmalade/7.4/modules/third_party/libjpeg/h/jmemsys.h'
p1034
(lp1035
I1
ag1033
asS'c:/marmalade/7.4/modules/third_party/libjpeg/h/jchuff.h'
p1036
(lp1037
I1
ag1033
asS'c:/marmalade/7.4/modules/third_party/libjpeg/h/jpeglib.h'
p1038
(lp1039
I1
ag1033
asS'c:/marmalade/7.4/modules/third_party/libjpeg/h/cdjpeg.h'
p1040
(lp1041
I1
ag1033
asS'c:/marmalade/7.4/modules/third_party/libjpeg/h/jinclude.h'
p1042
(lp1043
I1
ag1033
asS'c:/marmalade/7.4/modules/third_party/libjpeg/h/jconfig.h'
p1044
(lp1045
I1
ag1033
asS'c:/marmalade/7.4/modules/third_party/libjpeg/h/cderror.h'
p1046
(lp1047
I1
ag1033
asS'c:/marmalade/7.4/modules/third_party/libjpeg/h/jdct.h'
p1048
(lp1049
I1
ag1033
asS'c:/marmalade/7.4/modules/third_party/libjpeg/h/jversion.h'
p1050
(lp1051
I1
ag1033
asS'c:/marmalade/7.4/modules/third_party/libjpeg/h/transupp.h'
p1052
(lp1053
I1
ag1033
asS'c:/marmalade/7.4/modules/third_party/libjpeg/h/jdhuff.h'
p1054
(lp1055
I1
ag1033
asS'c:/marmalade/7.4/modules/third_party/libjpeg/h/jpegint.h'
p1056
(lp1057
I1
ag1033
asS'c:/marmalade/7.4/modules/third_party/libjpeg/h/jmorecfg.h'
p1058
(lp1059
I1
ag1033
assS'c:/marmalade/7.4/modules/third_party/libjpeg/libjpeg.mkf'
p1060
(lp1061
I1
a(dp1062
assS'(tiniconv)'
p1063
(dp1064
S'c:/marmalade/7.4/modules/third_party/tiniconv/source/tiniconv_int.h'
p1065
(lp1066
I1
a(dp1067
asS'c:/marmalade/7.4/modules/third_party/tiniconv/tiniconv.mkf'
p1068
(lp1069
I1
a(dp1070
asS'c:/marmalade/7.4/modules/third_party/tiniconv/source/tiniconv.h'
p1071
(lp1072
I1
ag1067
assS'Source'
p1073
(dp1074
S'c:/Users/YUSUKE-SATO/Documents/GitHub/MonkFlip/MonkFlip/source/Input.cpp'
p1075
(lp1076
I1
a(dp1077
asS'c:/Users/YUSUKE-SATO/Documents/GitHub/MonkFlip/MonkFlip/source/Main.cpp'
p1078
(lp1079
I1
ag1077
asS'c:/Users/YUSUKE-SATO/Documents/GitHub/MonkFlip/MonkFlip/source/Screen.cpp'
p1080
(lp1081
I1
ag1077
asS'c:/Users/YUSUKE-SATO/Documents/GitHub/MonkFlip/MonkFlip/source/Button.cpp'
p1082
(lp1083
I1
ag1077
asS'c:/Users/YUSUKE-SATO/Documents/GitHub/MonkFlip/MonkFlip/source/Screen.h'
p1084
(lp1085
I1
ag1077
asS'c:/Users/YUSUKE-SATO/Documents/GitHub/MonkFlip/MonkFlip/source/Sprite.cpp'
p1086
(lp1087
I1
ag1077
asS'c:/Users/YUSUKE-SATO/Documents/GitHub/MonkFlip/MonkFlip/source/Game.h'
p1088
(lp1089
I1
ag1077
asS'c:/Users/YUSUKE-SATO/Documents/GitHub/MonkFlip/MonkFlip/source/Main.h'
p1090
(lp1091
I1
ag1077
asS'c:/Users/YUSUKE-SATO/Documents/GitHub/MonkFlip/MonkFlip/source/Input.h'
p1092
(lp1093
I1
ag1077
asS'c:/Users/YUSUKE-SATO/Documents/GitHub/MonkFlip/MonkFlip/source/Game.cpp'
p1094
(lp1095
I1
ag1077
asS'c:/Users/YUSUKE-SATO/Documents/GitHub/MonkFlip/MonkFlip/source/Sprite.h'
p1096
(lp1097
I1
ag1077
asS'c:/Users/YUSUKE-SATO/Documents/GitHub/MonkFlip/MonkFlip/source/Button.h'
p1098
(lp1099
I1
ag1077
assS'Extensions'
p1100
(dp1101
S'PVRTexTool'
p1102
(dp1103
S'interface'
p1104
(dp1105
S'c:/marmalade/7.4/extensions/pvrtextool/interface/PVRTexTool_interface.cpp'
p1106
(lp1107
I1
a(dp1108
asS'c:/marmalade/7.4/extensions/pvrtextool/interface/PVRTexTool.defines.txt'
p1109
(lp1110
I1
ag1108
assS'c:/marmalade/7.4/extensions/pvrtextool/pvrtextool.mkf'
p1111
(lp1112
I1
a(dp1113
asS'c:/marmalade/7.4/extensions/pvrtextool/h/PVRTexTool.h'
p1114
(lp1115
I1
ag1108
asssS"'Marmalade Studio'"
p1116
(dp1117
S'iwgl'
p1118
(dp1119
S'c:/marmalade/7.4/modules/iwgl/iwgl.mkf'
p1120
(lp1121
I1
a(dp1122
asS'c:/marmalade/7.4/modules/iwgl/docs/iwgl.config.txt'
p1123
(lp1124
I1
a(dp1125
asS'c:/marmalade/7.4/modules/iwgl/h/IwGL.h'
p1126
(lp1127
I1
ag1125
asS'c:/marmalade/7.4/modules/iwgl/h/IwGLExt.h'
p1128
(lp1129
I1
ag1125
assS'iw2d'
p1130
(dp1131
S'c:/marmalade/7.4/modules/iw2d/docs/iw2d.config.txt'
p1132
(lp1133
I1
a(dp1134
asS'c:/marmalade/7.4/modules/iw2d/docs/iw2d_public.defines.txt'
p1135
(lp1136
I1
ag1134
asS'c:/marmalade/7.4/modules/iw2d/h/Iw2D.h'
p1137
(lp1138
I1
ag1134
asS'c:/marmalade/7.4/modules/iw2d/iw2d.mkf'
p1139
(lp1140
I1
a(dp1141
assS'iwgxfont'
p1142
(dp1143
S'c:/marmalade/7.4/modules/iwgxfont/docs/iwgxfont_public.defines.txt'
p1144
(lp1145
I1
a(dp1146
asS'c:/marmalade/7.4/modules/iwgxfont/h/IwGxFontGlyph.h'
p1147
(lp1148
I1
ag1146
asS'c:/marmalade/7.4/modules/iwgxfont/docs/iwgxfont.config.txt'
p1149
(lp1150
I1
ag1146
asS'c:/marmalade/7.4/modules/iwgxfont/h/IwGxFont.h'
p1151
(lp1152
I1
ag1146
asS'c:/marmalade/7.4/modules/iwgxfont/h/IwGxFontTypes.h'
p1153
(lp1154
I1
ag1146
asS'c:/marmalade/7.4/modules/iwgxfont/h/IwGxFontPreparedData.h'
p1155
(lp1156
I1
ag1146
asS'c:/marmalade/7.4/modules/iwgxfont/h/IwGxFontState.h'
p1157
(lp1158
I1
ag1146
asS'c:/marmalade/7.4/modules/iwgxfont/h/IwGxFontContainer.h'
p1159
(lp1160
I1
ag1146
asS'c:/marmalade/7.4/modules/iwgxfont/iwgxfont.mkf'
p1161
(lp1162
I1
a(dp1163
assS'iwgeom'
p1164
(dp1165
S'c:/marmalade/7.4/modules/iwgeom/docs/iwgeom.config.txt'
p1166
(lp1167
I1
a(dp1168
asS'c:/marmalade/7.4/modules/iwgeom/h/IwGeomFIntersect.h'
p1169
(lp1170
I1
ag1168
asS'c:/marmalade/7.4/modules/iwgeom/h/IwGeomMat2D.h.tpl'
p1171
(lp1172
I1
ag1168
asS'c:/marmalade/7.4/modules/iwgeom/iwgeom.mkf'
p1173
(lp1174
I1
a(dp1175
asS'c:/marmalade/7.4/modules/iwgeom/h/IwGeomVec.h.tpl'
p1176
(lp1177
I1
ag1168
asS'c:/marmalade/7.4/modules/iwgeom/h/IwGeomFSphere.h'
p1178
(lp1179
I1
ag1168
asS'c:/marmalade/7.4/modules/iwgeom/h/IwGeomFQuat.h'
p1180
(lp1181
I1
ag1168
asS'c:/marmalade/7.4/modules/iwgeom/h/IwGeomMenu.h'
p1182
(lp1183
I1
ag1168
asS'c:/marmalade/7.4/modules/iwgeom/h/IwGeomFMat2D.h'
p1184
(lp1185
I1
ag1168
asS'c:/marmalade/7.4/modules/iwgeom/h/IwGeomFVec4.h'
p1186
(lp1187
I1
ag1168
asS'c:/marmalade/7.4/modules/iwgeom/h/IwGeomQuat.h'
p1188
(lp1189
I1
ag1168
asS'c:/marmalade/7.4/modules/iwgeom/h/IwGeomFBBox.h'
p1190
(lp1191
I1
ag1168
asS'c:/marmalade/7.4/modules/iwgeom/h/IwGeomSVec4.h'
p1192
(lp1193
I1
ag1168
asS'c:/marmalade/7.4/modules/iwgeom/h/IwGeomFVec2.h'
p1194
(lp1195
I1
ag1168
asS'c:/marmalade/7.4/modules/iwgeom/h/IwGeomVec.h'
p1196
(lp1197
I1
ag1168
asS'c:/marmalade/7.4/modules/iwgeom/h/IwGeomPlane.h'
p1198
(lp1199
I1
ag1168
asS'c:/marmalade/7.4/modules/iwgeom/h/IwGeomQuat.h.tpl'
p1200
(lp1201
I1
ag1168
asS'c:/marmalade/7.4/modules/iwgeom/h/IwGeomSVec3.h'
p1202
(lp1203
I1
ag1168
asS'c:/marmalade/7.4/modules/iwgeom/h/IwGeomMat.h'
p1204
(lp1205
I1
ag1168
asS'c:/marmalade/7.4/modules/iwgeom/h/IwGeomVec3.h'
p1206
(lp1207
I1
ag1168
asS'c:/marmalade/7.4/modules/iwgeom/h/IwGeomVec2.h'
p1208
(lp1209
I1
ag1168
asS'c:/marmalade/7.4/modules/iwgeom/h/IwGeomLegacy.h'
p1210
(lp1211
I1
ag1168
asS'c:/marmalade/7.4/modules/iwgeom/h/IwGeomSQuat.h'
p1212
(lp1213
I1
ag1168
asS'c:/marmalade/7.4/modules/iwgeom/h/IwGeomCore.h'
p1214
(lp1215
I1
ag1168
asS'c:/marmalade/7.4/modules/iwgeom/h/IwGeomVec4.h'
p1216
(lp1217
I1
ag1168
asS'c:/marmalade/7.4/modules/iwgeom/h/IwGeomBBox.h'
p1218
(lp1219
I1
ag1168
asS'c:/marmalade/7.4/modules/iwgeom/h/IwGeomIntersect.h'
p1220
(lp1221
I1
ag1168
asS'c:/marmalade/7.4/modules/iwgeom/h/IwGeomSVec2.h'
p1222
(lp1223
I1
ag1168
asS'c:/marmalade/7.4/modules/iwgeom/h/IwGeomMat2D.h'
p1224
(lp1225
I1
ag1168
asS'c:/marmalade/7.4/modules/iwgeom/h/IwGeomSphere.h'
p1226
(lp1227
I1
ag1168
asS'c:/marmalade/7.4/modules/iwgeom/h/IwGeomFVec3.h'
p1228
(lp1229
I1
ag1168
asS'c:/marmalade/7.4/modules/iwgeom/h/IwGeom.h'
p1230
(lp1231
I1
ag1168
asS'c:/marmalade/7.4/modules/iwgeom/h/IwGeomMat.h.tpl'
p1232
(lp1233
I1
ag1168
asS'c:/marmalade/7.4/modules/iwgeom/h/IwGeomFPlane.h'
p1234
(lp1235
I1
ag1168
asS'c:/marmalade/7.4/modules/iwgeom/h/IwGeomFMat.h'
p1236
(lp1237
I1
ag1168
asS'c:/marmalade/7.4/modules/iwgeom/h/IwGeomSqrt.h'
p1238
(lp1239
I1
ag1168
assS'iwresmanager'
p1240
(dp1241
S'c:/marmalade/7.4/modules/iwresmanager/h/IwResHandlerITX.h'
p1242
(lp1243
I1
a(dp1244
asS'c:/marmalade/7.4/modules/iwresmanager/h/IwResGroup.h'
p1245
(lp1246
I1
ag1244
asS'c:/marmalade/7.4/modules/iwresmanager/h/IwResManager.h'
p1247
(lp1248
I1
ag1244
asS'c:/marmalade/7.4/modules/iwresmanager/h/IwResManagerClass.h'
p1249
(lp1250
I1
ag1244
asS'c:/marmalade/7.4/modules/iwresmanager/h/IwResSerialise.h'
p1251
(lp1252
I1
ag1244
asS'c:/marmalade/7.4/modules/iwresmanager/h/IwResHandlerGROUP.h'
p1253
(lp1254
I1
ag1244
asS'c:/marmalade/7.4/modules/iwresmanager/iwresmanager.mkf'
p1255
(lp1256
I1
a(dp1257
asS'c:/marmalade/7.4/modules/iwresmanager/h/IwResHandlerImage.h'
p1258
(lp1259
I1
ag1244
asS'c:/marmalade/7.4/modules/iwresmanager/h/IwResHandler.h'
p1260
(lp1261
I1
ag1244
asS'c:/marmalade/7.4/modules/iwresmanager/docs/iwresmanager.config.txt'
p1262
(lp1263
I1
ag1244
assS'iwgx'
p1264
(dp1265
S'c:/marmalade/7.4/modules/iwgx/h/IwDebugPrim.h'
p1266
(lp1267
I1
a(dp1268
asS'c:/marmalade/7.4/modules/iwgx/h/IwGxFuncTable.h'
p1269
(lp1270
I1
ag1268
asS'c:/marmalade/7.4/modules/iwgx/h/IwClip.inl'
p1271
(lp1272
I1
ag1268
asS'c:/marmalade/7.4/modules/iwgx/h/IwGxPrint.h'
p1273
(lp1274
I1
ag1268
asS'c:/marmalade/7.4/modules/iwgx/h/IwGx.h'
p1275
(lp1276
I1
ag1268
asS'c:/marmalade/7.4/modules/iwgx/h/IwTexture.h'
p1277
(lp1278
I1
ag1268
asS'c:/marmalade/7.4/modules/iwgx/h/IwFColour.h'
p1279
(lp1280
I1
ag1268
asS'c:/marmalade/7.4/modules/iwgx/h/IwColour.h'
p1281
(lp1282
I1
ag1268
asS'c:/marmalade/7.4/modules/iwgx/h/IwGxState.h'
p1283
(lp1284
I1
ag1268
asS'c:/marmalade/7.4/modules/iwgx/h/IwClip.h'
p1285
(lp1286
I1
ag1268
asS'c:/marmalade/7.4/modules/iwgx/h/IwTPage.h'
p1287
(lp1288
I1
ag1268
asS'c:/marmalade/7.4/modules/iwgx/h/IwMaterial.h'
p1289
(lp1290
I1
ag1268
asS'c:/marmalade/7.4/modules/iwgx/h/IwGxDebug.h'
p1291
(lp1292
I1
ag1268
asS'c:/marmalade/7.4/modules/iwgx/h/IwMatAnim.h'
p1293
(lp1294
I1
ag1268
asS'c:/marmalade/7.4/modules/iwgx/h/IwGxStream.h'
p1295
(lp1296
I1
ag1268
asS'c:/marmalade/7.4/modules/iwgx/h/IwResHandlerMTL.h'
p1297
(lp1298
I1
ag1268
asS'c:/marmalade/7.4/modules/iwgx/h/IwGxMetrics.h'
p1299
(lp1300
I1
ag1268
asS'c:/marmalade/7.4/modules/iwgx/h/IwGxError.h'
p1301
(lp1302
I1
ag1268
asS'c:/marmalade/7.4/modules/iwgx/docs/iwgx.config.txt'
p1303
(lp1304
I1
ag1268
asS'c:/marmalade/7.4/modules/iwgx/h/IwGxTransformSW.h'
p1305
(lp1306
I1
ag1268
asS'c:/marmalade/7.4/modules/iwgx/iwgx.mkf'
p1307
(lp1308
I1
a(dp1309
asS'c:/marmalade/7.4/modules/iwgx/docs/iwgx_public.defines.txt'
p1310
(lp1311
I1
ag1268
asS'c:/marmalade/7.4/modules/iwgx/h/IwGxShaderTechnique.h'
p1312
(lp1313
I1
ag1268
asS'c:/marmalade/7.4/modules/iwgx/h/IwGxTypes.h'
p1314
(lp1315
I1
ag1268
asS'c:/marmalade/7.4/modules/iwgx/h/IwGxSurface.h'
p1316
(lp1317
I1
ag1268
assS'iwutil'
p1318
(dp1319
S'c:/marmalade/7.4/modules/iwutil/h/IwTextParser.h'
p1320
(lp1321
I1
a(dp1322
asS'c:/marmalade/7.4/modules/iwutil/h/IwMenu.h'
p1323
(lp1324
I1
ag1322
asS'c:/marmalade/7.4/modules/iwutil/h/IwUtilInitTerm.h'
p1325
(lp1326
I1
ag1322
asS'c:/marmalade/7.4/modules/iwutil/h/IwCopyingPtr.h'
p1327
(lp1328
I1
ag1322
asS'c:/marmalade/7.4/modules/iwutil/h/IwDebug.h'
p1329
(lp1330
I1
ag1322
asS'c:/marmalade/7.4/modules/iwutil/h/IwDivTable.h'
p1331
(lp1332
I1
ag1322
asS'c:/marmalade/7.4/modules/iwutil/h/IwBuffer.h'
p1333
(lp1334
I1
ag1322
asS'c:/marmalade/7.4/modules/iwutil/h/IwRandom.h'
p1335
(lp1336
I1
ag1322
asS'c:/marmalade/7.4/modules/iwutil/h/IwResource.h'
p1337
(lp1338
I1
ag1322
asS'c:/marmalade/7.4/modules/iwutil/h/IwCore.h'
p1339
(lp1340
I1
ag1322
asS'c:/marmalade/7.4/modules/iwutil/h/IwTextParserITX.h'
p1341
(lp1342
I1
ag1322
asS'c:/marmalade/7.4/modules/iwutil/h/IwManaged.h'
p1343
(lp1344
I1
ag1322
asS'c:/marmalade/7.4/modules/iwutil/h/IwHashString.h'
p1345
(lp1346
I1
ag1322
asS'c:/marmalade/7.4/modules/iwutil/h/IwProfileMenu.h'
p1347
(lp1348
I1
ag1322
asS'c:/marmalade/7.4/modules/iwutil/h/IwManagedList.h'
p1349
(lp1350
I1
ag1322
asS'c:/marmalade/7.4/modules/iwutil/h/IwList.h'
p1351
(lp1352
I1
ag1322
asS'c:/marmalade/7.4/modules/iwutil/h/IwSerialise.h'
p1353
(lp1354
I1
ag1322
asS'c:/marmalade/7.4/modules/iwutil/h/IwClassFactory.h'
p1355
(lp1356
I1
ag1322
asS'c:/marmalade/7.4/modules/iwutil/h/IwTypes.h'
p1357
(lp1358
I1
ag1322
asS'c:/marmalade/7.4/modules/iwutil/h/IwAllocator.h'
p1359
(lp1360
I1
ag1322
asS'c:/marmalade/7.4/modules/iwutil/h/IwMemory.h'
p1361
(lp1362
I1
ag1322
asS'c:/marmalade/7.4/modules/iwutil/h/IwTextParseable.h'
p1363
(lp1364
I1
ag1322
asS'c:/marmalade/7.4/modules/iwutil/h/IwFile.h'
p1365
(lp1366
I1
ag1322
asS'c:/marmalade/7.4/modules/iwutil/h/IwRuntime.h'
p1367
(lp1368
I1
ag1322
asS'c:/marmalade/7.4/modules/iwutil/h/IwMemBucketHelpers.h'
p1369
(lp1370
I1
ag1322
asS'c:/marmalade/7.4/modules/iwutil/h/IwUncopyable.h'
p1371
(lp1372
I1
ag1322
asS'c:/marmalade/7.4/modules/iwutil/h/IwChar.h'
p1373
(lp1374
I1
ag1322
asS'c:/marmalade/7.4/modules/iwutil/h/IwOptimiseARM.h'
p1375
(lp1376
I1
ag1322
asS'c:/marmalade/7.4/modules/iwutil/h/IwImage.h'
p1377
(lp1378
I1
ag1322
asS'c:/marmalade/7.4/modules/iwutil/h/IwImageHelper.h'
p1379
(lp1380
I1
ag1322
asS'c:/marmalade/7.4/modules/iwutil/h/IwMemBucket.h'
p1381
(lp1382
I1
ag1322
asS'c:/marmalade/7.4/modules/iwutil/h/IwDivide.h'
p1383
(lp1384
I1
ag1322
asS'c:/marmalade/7.4/modules/iwutil/h/IwOptimiseSpeed.h'
p1385
(lp1386
I1
ag1322
asS'c:/marmalade/7.4/modules/iwutil/h/IwArray.h'
p1387
(lp1388
I1
ag1322
asS'c:/marmalade/7.4/modules/iwutil/docs/iwutil.config.txt'
p1389
(lp1390
I1
ag1322
asS'c:/marmalade/7.4/modules/iwutil/h/IwUTF8.h'
p1391
(lp1392
I1
ag1322
asS'c:/marmalade/7.4/modules/iwutil/h/IwEvent.h'
p1393
(lp1394
I1
ag1322
asS'c:/marmalade/7.4/modules/iwutil/h/IwMath.h'
p1395
(lp1396
I1
ag1322
asS'c:/marmalade/7.4/modules/iwutil/h/IwFibre.h'
p1397
(lp1398
I1
ag1322
asS'c:/marmalade/7.4/modules/iwutil/h/IwString.h'
p1399
(lp1400
I1
ag1322
asS'c:/marmalade/7.4/modules/iwutil/h/IwKeymap.h'
p1401
(lp1402
I1
ag1322
asS'c:/marmalade/7.4/modules/iwutil/iwutil.mkf'
p1403
(lp1404
I1
a(dp1405
asS'c:/marmalade/7.4/modules/iwutil/h/IwSingleton.h'
p1406
(lp1407
I1
ag1322
asS'c:/marmalade/7.4/modules/iwutil/h/IwAutoFile.h'
p1408
(lp1409
I1
ag1322
asS'c:/marmalade/7.4/modules/iwutil/h/IwOptimiseThumb.h'
p1410
(lp1411
I1
ag1322
asS'c:/marmalade/7.4/modules/iwutil/h/IwUtil.h'
p1412
(lp1413
I1
ag1322
asS'c:/marmalade/7.4/modules/iwutil/h/IwPath.h'
p1414
(lp1415
I1
ag1322
asS'c:/marmalade/7.4/modules/iwutil/h/IwMemManagerDL.h'
p1416
(lp1417
I1
ag1322
asS'c:/marmalade/7.4/modules/iwutil/h/IwVariableBitField.h'
p1418
(lp1419
I1
ag1322
asS'c:/marmalade/7.4/modules/iwutil/h/IwOptimiseSize.h'
p1420
(lp1421
I1
ag1322
asssS'(zlib)'
p1422
(dp1423
g1018
(dp1424
S'c:/marmalade/7.4/modules/third_party/zlib/h/zconf.h'
p1425
(lp1426
I1
a(dp1427
asS'c:/marmalade/7.4/modules/third_party/zlib/h/zlib.h'
p1428
(lp1429
I1
ag1427
assS'c:/marmalade/7.4/modules/third_party/zlib/zlib.mkf'
p1430
(lp1431
I1
a(dp1432
assS'Data'
p1433
(dp1434
S'c:/Users/YUSUKE-SATO/Documents/GitHub/MonkFlip/MonkFlip/data/MonkFlip.group'
p1435
(lp1436
I1
ag1077
asssS'files'
p1437
(dp1438
S'IwGxFontPreparedData.h'
p1439
g302
(cmkb_main
File
p1440
g304
Ntp1441
Rp1442
(dp1443
S'flags'
p1444
g1146
sS'group'
p1445
(lp1446
S"'Marmalade Studio'"
p1447
ag1142
asg328
g1155
sbsS'iterator'
p1448
g302
(g1440
g304
Ntp1449
Rp1450
(dp1451
g1444
(dp1452
sg1445
(lp1453
S"'Marmalade System (S3E)'"
p1454
aS'stdc headers'
p1455
aS'c++'
p1456
asg328
S'c:/marmalade/7.4/s3e/h/std/c++/iterator'
p1457
sbsS'IwGL.h'
p1458
g302
(g1440
g304
Ntp1459
Rp1460
(dp1461
g1444
g1125
sg1445
(lp1462
S"'Marmalade Studio'"
p1463
ag1118
asg328
g1126
sbsS's3e.h'
p1464
g302
(g1440
g304
Ntp1465
Rp1466
(dp1467
g1444
g1452
sg1445
(lp1468
g1454
asg328
S'c:/marmalade/7.4/s3e/h/s3e.h'
p1469
sbsS'errno.h'
p1470
g302
(g1440
g304
Ntp1471
Rp1472
(dp1473
g1444
g1452
sg1445
(lp1474
g1454
aS'stdc headers'
p1475
asg328
S'c:/marmalade/7.4/s3e/h/std/errno.h'
p1476
sbsS'IwSingleton.h'
p1477
g302
(g1440
g304
Ntp1478
Rp1479
(dp1480
g1444
g1322
sg1445
(lp1481
S"'Marmalade Studio'"
p1482
ag1318
asg328
g1406
sbsS'dlfcn.h'
p1483
g302
(g1440
g304
Ntp1484
Rp1485
(dp1486
g1444
g1452
sg1445
g1474
sg328
S'c:/marmalade/7.4/s3e/h/std/dlfcn.h'
p1487
sbsS'stdio_streambuf'
p1488
g302
(g1440
g304
Ntp1489
Rp1490
(dp1491
g1444
g1452
sg1445
g1453
sg328
S'c:/marmalade/7.4/s3e/h/std/c++/stdio_streambuf'
p1492
sbsS'sched.h'
p1493
g302
(g1440
g304
Ntp1494
Rp1495
(dp1496
g1444
g1452
sg1445
g1474
sg328
S'c:/marmalade/7.4/s3e/h/std/sched.h'
p1497
sbsS'IwGeomFMat2D.h'
p1498
g302
(g1440
g304
Ntp1499
Rp1500
(dp1501
g1444
g1168
sg1445
(lp1502
S"'Marmalade Studio'"
p1503
ag1164
asg328
g1184
sbsS's3eExt.h'
p1504
g302
(g1440
g304
Ntp1505
Rp1506
(dp1507
g1444
g1452
sg1445
g1468
sg328
S'c:/marmalade/7.4/s3e/h/s3eExt.h'
p1508
sbsS'grp.h'
p1509
g302
(g1440
g304
Ntp1510
Rp1511
(dp1512
g1444
g1452
sg1445
g1474
sg328
S'c:/marmalade/7.4/s3e/h/std/grp.h'
p1513
sbsS'list'
p1514
g302
(g1440
g304
Ntp1515
Rp1516
(dp1517
g1444
g1452
sg1445
g1453
sg328
S'c:/marmalade/7.4/s3e/h/std/c++/list'
p1518
sbsS'IwGeomMat.h.tpl'
p1519
g302
(g1440
g304
Ntp1520
Rp1521
(dp1522
g1444
g1168
sg1445
g1502
sg328
g1232
sbsS'istream'
p1523
g302
(g1440
g304
Ntp1524
Rp1525
(dp1526
g1444
g1452
sg1445
g1453
sg328
S'c:/marmalade/7.4/s3e/h/std/c++/istream'
p1527
sbsS'jpeglib.h'
p1528
g302
(g1440
g304
Ntp1529
Rp1530
(dp1531
g1444
g1033
sg1445
(lp1532
g1028
ag1018
asg328
g1038
sbsS'iw2d_public.defines.txt'
p1533
g302
(g1440
g304
Ntp1534
Rp1535
(dp1536
g1444
g1134
sg1445
(lp1537
S"'Marmalade Studio'"
p1538
ag1130
asg328
g1135
sbsS'iostream.h'
p1539
g302
(g1440
g304
Ntp1540
Rp1541
(dp1542
g1444
g1452
sg1445
g1453
sg328
S'c:/marmalade/7.4/s3e/h/std/c++/iostream.h'
p1543
sbsS'string'
p1544
g302
(g1440
g304
Ntp1545
Rp1546
(dp1547
g1444
g1452
sg1445
g1453
sg328
S'c:/marmalade/7.4/s3e/h/std/c++/string'
p1548
sbsS'IwMemory.h'
p1549
g302
(g1440
g304
Ntp1550
Rp1551
(dp1552
g1444
g1322
sg1445
g1481
sg328
g1361
sbsS'IwGeomPlane.h'
p1553
g302
(g1440
g304
Ntp1554
Rp1555
(dp1556
g1444
g1168
sg1445
g1502
sg328
g1198
sbsS'iw2d.config.txt'
p1557
g302
(g1440
g304
Ntp1558
Rp1559
(dp1560
g1444
g1134
sg1445
g1537
sg328
g1132
sbsS'iomanip'
p1561
g302
(g1440
g304
Ntp1562
Rp1563
(dp1564
g1444
g1452
sg1445
g1453
sg328
S'c:/marmalade/7.4/s3e/h/std/c++/iomanip'
p1565
sbsS'iwgeom.mkf'
p1566
g302
(g1440
g304
Ntp1567
Rp1568
(dp1569
g1444
g1175
sg1445
g1502
sg328
g1173
sbsS'IwGxError.h'
p1570
g302
(g1440
g304
Ntp1571
Rp1572
(dp1573
g1444
g1268
sg1445
(lp1574
S"'Marmalade Studio'"
p1575
ag1264
asg328
g1301
sbsS'IwGeom.h'
p1576
g302
(g1440
g304
Ntp1577
Rp1578
(dp1579
g1444
g1168
sg1445
g1502
sg328
g1230
sbsS'IwGeomVec4.h'
p1580
g302
(g1440
g304
Ntp1581
Rp1582
(dp1583
g1444
g1168
sg1445
g1502
sg328
g1216
sbsS'dir.h'
p1584
g302
(g1440
g304
Ntp1585
Rp1586
(dp1587
g1444
g1452
sg1445
(lp1588
g1454
aS'stdc headers'
p1589
aS'sys'
p1590
asg328
S'c:/marmalade/7.4/s3e/h/std/sys/dir.h'
p1591
sbsS'locale.h'
p1592
g302
(g1440
g304
Ntp1593
Rp1594
(dp1595
g1444
g1452
sg1445
g1474
sg328
S'c:/marmalade/7.4/s3e/h/std/locale.h'
p1596
sbsS'vector'
p1597
g302
(g1440
g304
Ntp1598
Rp1599
(dp1600
g1444
g1452
sg1445
g1453
sg328
S'c:/marmalade/7.4/s3e/h/std/c++/vector'
p1601
sbsS'IwManaged.h'
p1602
g302
(g1440
g304
Ntp1603
Rp1604
(dp1605
g1444
g1322
sg1445
g1481
sg328
g1343
sbsS's3eCompass.h'
p1606
g302
(g1440
g304
Ntp1607
Rp1608
(dp1609
g1444
g1452
sg1445
g1468
sg328
S'c:/marmalade/7.4/s3e/h/s3eCompass.h'
p1610
sbsS'cderror.h'
p1611
g302
(g1440
g304
Ntp1612
Rp1613
(dp1614
g1444
g1033
sg1445
g1532
sg328
g1046
sbsS'climits'
p1615
g302
(g1440
g304
Ntp1616
Rp1617
(dp1618
g1444
g1452
sg1445
g1453
sg328
S'c:/marmalade/7.4/s3e/h/std/c++/climits'
p1619
sbsS's3eVibra.h'
p1620
g302
(g1440
g304
Ntp1621
Rp1622
(dp1623
g1444
g1452
sg1445
g1468
sg328
S'c:/marmalade/7.4/s3e/h/s3eVibra.h'
p1624
sbsS'jversion.h'
p1625
g302
(g1440
g304
Ntp1626
Rp1627
(dp1628
g1444
g1033
sg1445
g1532
sg328
g1050
sbsS'fnmatch.h'
p1629
g302
(g1440
g304
Ntp1630
Rp1631
(dp1632
g1444
g1452
sg1445
g1474
sg328
S'c:/marmalade/7.4/s3e/h/std/fnmatch.h'
p1633
sbsS'IwGxState.h'
p1634
g302
(g1440
g304
Ntp1635
Rp1636
(dp1637
g1444
g1268
sg1445
g1574
sg328
g1283
sbsS's3eAudio.h'
p1638
g302
(g1440
g304
Ntp1639
Rp1640
(dp1641
g1444
g1452
sg1445
g1468
sg328
S'c:/marmalade/7.4/s3e/h/s3eAudio.h'
p1642
sbsS's3eSurface.h'
p1643
g302
(g1440
g304
Ntp1644
Rp1645
(dp1646
g1444
g1452
sg1445
g1468
sg328
S'c:/marmalade/7.4/s3e/h/s3eSurface.h'
p1647
sbsS'new'
p1648
g302
(g1440
g304
Ntp1649
Rp1650
(dp1651
g1444
g1452
sg1445
g1453
sg328
S'c:/marmalade/7.4/s3e/h/std/c++/new'
p1652
sbsS's3eWindow.h'
p1653
g302
(g1440
g304
Ntp1654
Rp1655
(dp1656
g1444
g1452
sg1445
(lp1657
g1454
aS'Extensions'
p1658
asg328
S'c:/marmalade/7.4/s3e/h/ext/s3eWindow.h'
p1659
sbsS'IwBuffer.h'
p1660
g302
(g1440
g304
Ntp1661
Rp1662
(dp1663
g1444
g1322
sg1445
g1481
sg328
g1333
sbsS'IwGeomQuat.h.tpl'
p1664
g302
(g1440
g304
Ntp1665
Rp1666
(dp1667
g1444
g1168
sg1445
g1502
sg328
g1200
sbsS's3eOSExec.h'
p1668
g302
(g1440
g304
Ntp1669
Rp1670
(dp1671
g1444
g1452
sg1445
g1657
sg328
S'c:/marmalade/7.4/s3e/h/ext/s3eOSExec.h'
p1672
sbsS'IwGxTransformSW.h'
p1673
g302
(g1440
g304
Ntp1674
Rp1675
(dp1676
g1444
g1268
sg1445
g1574
sg328
g1305
sbsS'IwGxMetrics.h'
p1677
g302
(g1440
g304
Ntp1678
Rp1679
(dp1680
g1444
g1268
sg1445
g1574
sg328
g1299
sbsS'iwgxfont.config.txt'
p1681
g302
(g1440
g304
Ntp1682
Rp1683
(dp1684
g1444
g1146
sg1445
g1446
sg328
g1149
sbsS'gl2platform.h'
p1685
g302
(g1440
g304
Ntp1686
Rp1687
(dp1688
g1444
g1452
sg1445
(lp1689
g1454
aS'GL'
p1690
aS'GLES 2.0'
p1691
asg328
S'c:/marmalade/7.4/s3e/h/GLES2/gl2platform.h'
p1692
sbsS'IwResManagerClass.h'
p1693
g302
(g1440
g304
Ntp1694
Rp1695
(dp1696
g1444
g1244
sg1445
(lp1697
g1116
ag1240
asg328
g1249
sbsS'queue'
p1698
g302
(g1440
g304
Ntp1699
Rp1700
(dp1701
g1444
g1452
sg1445
g1453
sg328
S'c:/marmalade/7.4/s3e/h/std/c++/queue'
p1702
sbsS'time_1.h'
p1703
g302
(g1440
g304
Ntp1704
Rp1705
(dp1706
g1444
g1452
sg1445
g1588
sg328
S'c:/marmalade/7.4/s3e/h/std/sys/time.h'
p1707
sbsS'Iw2D.h'
p1708
g302
(g1440
g304
Ntp1709
Rp1710
(dp1711
g1444
g1134
sg1445
g1537
sg328
g1137
sbsS'Input.cpp'
p1712
g302
(g1440
g304
Ntp1713
Rp1714
(dp1715
g1444
g1077
sg1445
(lp1716
g1073
asg328
g1075
sbsS'IwGeomVec2.h'
p1717
g302
(g1440
g304
Ntp1718
Rp1719
(dp1720
g1444
g1168
sg1445
g1502
sg328
g1208
sbsS's3eDevice.h'
p1721
g302
(g1440
g304
Ntp1722
Rp1723
(dp1724
g1444
g1452
sg1445
g1468
sg328
S'c:/marmalade/7.4/s3e/h/s3eDevice.h'
p1725
sbsS'malloc.h'
p1726
g302
(g1440
g304
Ntp1727
Rp1728
(dp1729
g1444
g1452
sg1445
g1474
sg328
S'c:/marmalade/7.4/s3e/h/std/malloc.h'
p1730
sbsS'stdarg.h'
p1731
g302
(g1440
g304
Ntp1732
Rp1733
(dp1734
g1444
g1452
sg1445
g1474
sg328
S'c:/marmalade/7.4/s3e/h/std/stdarg.h'
p1735
sbsS'IwGeomCore.h'
p1736
g302
(g1440
g304
Ntp1737
Rp1738
(dp1739
g1444
g1168
sg1445
g1502
sg328
g1214
sbsS'endian.h'
p1740
g302
(g1440
g304
Ntp1741
Rp1742
(dp1743
g1444
g1452
sg1445
g1474
sg328
S'c:/marmalade/7.4/s3e/h/std/endian.h'
p1744
sbsS'gl3ext.h'
p1745
g302
(g1440
g304
Ntp1746
Rp1747
(dp1748
g1444
g1452
sg1445
(lp1749
g1454
aS'GL'
p1750
aS'GLES 3.0'
p1751
asg328
S'c:/marmalade/7.4/s3e/h/GLES3/gl3ext.h'
p1752
sbsS'glob.h'
p1753
g302
(g1440
g304
Ntp1754
Rp1755
(dp1756
g1444
g1452
sg1445
g1474
sg328
S'c:/marmalade/7.4/s3e/h/std/glob.h'
p1757
sbsS'fstream'
p1758
g302
(g1440
g304
Ntp1759
Rp1760
(dp1761
g1444
g1452
sg1445
g1453
sg328
S'c:/marmalade/7.4/s3e/h/std/c++/fstream'
p1762
sbsS's3eCamera.h'
p1763
g302
(g1440
g304
Ntp1764
Rp1765
(dp1766
g1444
g1452
sg1445
g1468
sg328
S'c:/marmalade/7.4/s3e/h/s3eCamera.h'
p1767
sbsS'jconfig.h'
p1768
g302
(g1440
g304
Ntp1769
Rp1770
(dp1771
g1444
g1033
sg1445
g1532
sg328
g1044
sbsS'memory'
p1772
g302
(g1440
g304
Ntp1773
Rp1774
(dp1775
g1444
g1452
sg1445
g1453
sg328
S'c:/marmalade/7.4/s3e/h/std/c++/memory'
p1776
sbsS'egl.h'
p1777
g302
(g1440
g304
Ntp1778
Rp1779
(dp1780
g1444
g1452
sg1445
(lp1781
g1454
aS'GL'
p1782
aS'EGL'
p1783
asg328
S'c:/marmalade/7.4/s3e/h/EGL/egl.h'
p1784
sbsS'IwClip.inl'
p1785
g302
(g1440
g304
Ntp1786
Rp1787
(dp1788
g1444
g1268
sg1445
g1574
sg328
g1271
sbsS'IwMemManagerDL.h'
p1789
g302
(g1440
g304
Ntp1790
Rp1791
(dp1792
g1444
g1322
sg1445
g1481
sg328
g1416
sbsS'deque'
p1793
g302
(g1440
g304
Ntp1794
Rp1795
(dp1796
g1444
g1452
sg1445
g1453
sg328
S'c:/marmalade/7.4/s3e/h/std/c++/deque'
p1797
sbsS'IwString.h'
p1798
g302
(g1440
g304
Ntp1799
Rp1800
(dp1801
g1444
g1322
sg1445
g1481
sg328
g1399
sbsS'cwchar'
p1802
g302
(g1440
g304
Ntp1803
Rp1804
(dp1805
g1444
g1452
sg1445
g1453
sg328
S'c:/marmalade/7.4/s3e/h/std/c++/cwchar'
p1806
sbsS'iwutil.mkf'
p1807
g302
(g1440
g304
Ntp1808
Rp1809
(dp1810
g1444
g1405
sg1445
g1481
sg328
g1403
sbsS'csignal'
p1811
g302
(g1440
g304
Ntp1812
Rp1813
(dp1814
g1444
g1452
sg1445
g1453
sg328
S'c:/marmalade/7.4/s3e/h/std/c++/csignal'
p1815
sbsS'pthread_types.h'
p1816
g302
(g1440
g304
Ntp1817
Rp1818
(dp1819
g1444
g1452
sg1445
g1474
sg328
S'c:/marmalade/7.4/s3e/h/std/pthread_types.h'
p1820
sbsS'pthread_alloc'
p1821
g302
(g1440
g304
Ntp1822
Rp1823
(dp1824
g1444
g1452
sg1445
g1453
sg328
S'c:/marmalade/7.4/s3e/h/std/c++/pthread_alloc'
p1825
sbsS'getopt.h'
p1826
g302
(g1440
g304
Ntp1827
Rp1828
(dp1829
g1444
g1452
sg1445
g1474
sg328
S'c:/marmalade/7.4/s3e/h/std/getopt.h'
p1830
sbsS'IwOptimiseARM.h'
p1831
g302
(g1440
g304
Ntp1832
Rp1833
(dp1834
g1444
g1322
sg1445
g1481
sg328
g1375
sbsS'times.h'
p1835
g302
(g1440
g304
Ntp1836
Rp1837
(dp1838
g1444
g1452
sg1445
g1588
sg328
S'c:/marmalade/7.4/s3e/h/std/sys/times.h'
p1839
sbsS'IwGeomFSphere.h'
p1840
g302
(g1440
g304
Ntp1841
Rp1842
(dp1843
g1444
g1168
sg1445
g1502
sg328
g1178
sbsS'IwTypes.h'
p1844
g302
(g1440
g304
Ntp1845
Rp1846
(dp1847
g1444
g1322
sg1445
g1481
sg328
g1357
sbsS'unistd.h'
p1848
g302
(g1440
g304
Ntp1849
Rp1850
(dp1851
g1444
g1452
sg1445
g1474
sg328
S'c:/marmalade/7.4/s3e/h/std/unistd.h'
p1852
sbsS'Input.h'
p1853
g302
(g1440
g304
Ntp1854
Rp1855
(dp1856
g1444
g1077
sg1445
g1716
sg328
g1092
sbsS's3eCompression.h'
p1857
g302
(g1440
g304
Ntp1858
Rp1859
(dp1860
g1444
g1452
sg1445
g1468
sg328
S'c:/marmalade/7.4/s3e/h/s3eCompression.h'
p1861
sbsS'langinfo.h'
p1862
g302
(g1440
g304
Ntp1863
Rp1864
(dp1865
g1444
g1452
sg1445
g1474
sg328
S'c:/marmalade/7.4/s3e/h/std/langinfo.h'
p1866
sbsS's3edebugHeap.h'
p1867
g302
(g1440
g304
Ntp1868
Rp1869
(dp1870
g1444
g1452
sg1445
g1657
sg328
S'c:/marmalade/7.4/s3e/h/ext/s3edebugHeap.h'
p1871
sbsS'AirplayVersion.h'
p1872
g302
(g1440
g304
Ntp1873
Rp1874
(dp1875
g1444
g1452
sg1445
g1468
sg328
S'c:/marmalade/7.4/s3e/h/AirplayVersion.h'
p1876
sbsS'gl2extimg.h'
p1877
g302
(g1440
g304
Ntp1878
Rp1879
(dp1880
g1444
g1452
sg1445
g1689
sg328
S'c:/marmalade/7.4/s3e/h/GLES2/gl2extimg.h'
p1881
sbsS'app.config.txt'
p1882
g302
(g1440
g304
Ntp1883
Rp1884
(dp1885
g1444
(dp1886
sg1445
g4
sg328
S'c:/Users/YUSUKE-SATO/Documents/GitHub/MonkFlip/MonkFlip/data/app.config.txt'
p1887
sbsS'IwGeomSqrt.h'
p1888
g302
(g1440
g304
Ntp1889
Rp1890
(dp1891
g1444
g1168
sg1445
g1502
sg328
g1238
sbsS'tiniconv_int.h'
p1892
g302
(g1440
g304
Ntp1893
Rp1894
(dp1895
g1444
g1067
sg1445
(lp1896
g1063
asg328
g1065
sbsS'syslog.h'
p1897
g302
(g1440
g304
Ntp1898
Rp1899
(dp1900
g1444
g1452
sg1445
g1474
sg328
S'c:/marmalade/7.4/s3e/h/std/syslog.h'
p1901
sbsS'IwGxFontTypes.h'
p1902
g302
(g1440
g304
Ntp1903
Rp1904
(dp1905
g1444
g1146
sg1445
g1446
sg328
g1153
sbsS'IwGeomFIntersect.h'
p1906
g302
(g1440
g304
Ntp1907
Rp1908
(dp1909
g1444
g1168
sg1445
g1502
sg328
g1169
sbsS'hash_map'
p1910
g302
(g1440
g304
Ntp1911
Rp1912
(dp1913
g1444
g1452
sg1445
g1453
sg328
S'c:/marmalade/7.4/s3e/h/std/c++/hash_map'
p1914
sbsS's3e.mkf'
p1915
g302
(g1440
g304
Ntp1916
Rp1917
(dp1918
g1444
(dp1919
sg1445
g1468
sg328
S'c:/marmalade/7.4/s3e/s3e.mkf'
p1920
sbsS'IwGeomMat2D.h.tpl'
p1921
g302
(g1440
g304
Ntp1922
Rp1923
(dp1924
g1444
g1168
sg1445
g1502
sg328
g1171
sbsS's3eOSReadString.h'
p1925
g302
(g1440
g304
Ntp1926
Rp1927
(dp1928
g1444
g1452
sg1445
g1657
sg328
S'c:/marmalade/7.4/s3e/h/ext/s3eOSReadString.h'
p1929
sbsS'map'
p1930
g302
(g1440
g304
Ntp1931
Rp1932
(dp1933
g1444
g1452
sg1445
g1453
sg328
S'c:/marmalade/7.4/s3e/h/std/c++/map'
p1934
sbsS'IwOptimiseSpeed.h'
p1935
g302
(g1440
g304
Ntp1936
Rp1937
(dp1938
g1444
g1322
sg1445
g1481
sg328
g1385
sbsS'msl_string.h'
p1939
g302
(g1440
g304
Ntp1940
Rp1941
(dp1942
g1444
g1452
sg1445
g1453
sg328
S'c:/marmalade/7.4/s3e/h/std/c++/msl_string.h'
p1943
sbsS'select.h'
p1944
g302
(g1440
g304
Ntp1945
Rp1946
(dp1947
g1444
g1452
sg1445
g1588
sg328
S'c:/marmalade/7.4/s3e/h/std/sys/select.h'
p1948
sbsS'zlib.mkf'
p1949
g302
(g1440
g304
Ntp1950
Rp1951
(dp1952
g1444
g1432
sg1445
(lp1953
g1422
asg328
g1430
sbsS'signal.h'
p1954
g302
(g1440
g304
Ntp1955
Rp1956
(dp1957
g1444
g1452
sg1445
g1474
sg328
S'c:/marmalade/7.4/s3e/h/std/signal.h'
p1958
sbsS'sigcontext.h'
p1959
g302
(g1440
g304
Ntp1960
Rp1961
(dp1962
g1444
g1452
sg1445
g1474
sg328
S'c:/marmalade/7.4/s3e/h/std/sigcontext.h'
p1963
sbsS'libpng.mkf'
p1964
g302
(g1440
g304
Ntp1965
Rp1966
(dp1967
g1444
g1027
sg1445
(lp1968
g1016
asg328
g1025
sbsS's3eClipboard.h'
p1969
g302
(g1440
g304
Ntp1970
Rp1971
(dp1972
g1444
g1452
sg1445
g1468
sg328
S'c:/marmalade/7.4/s3e/h/s3eClipboard.h'
p1973
sbsS'IwGxFuncTable.h'
p1974
g302
(g1440
g304
Ntp1975
Rp1976
(dp1977
g1444
g1268
sg1445
g1574
sg328
g1269
sbsS'IwResHandlerGROUP.h'
p1978
g302
(g1440
g304
Ntp1979
Rp1980
(dp1981
g1444
g1244
sg1445
g1697
sg328
g1253
sbsS's3eDebug.h'
p1982
g302
(g1440
g304
Ntp1983
Rp1984
(dp1985
g1444
g1452
sg1445
g1468
sg328
S'c:/marmalade/7.4/s3e/h/s3eDebug.h'
p1986
sbsS'socket.h'
p1987
g302
(g1440
g304
Ntp1988
Rp1989
(dp1990
g1444
g1452
sg1445
g1588
sg328
S'c:/marmalade/7.4/s3e/h/std/sys/socket.h'
p1991
sbsS'glext.h'
p1992
g302
(g1440
g304
Ntp1993
Rp1994
(dp1995
g1444
g1452
sg1445
(lp1996
g1454
aS'GL'
p1997
aS'GLES 1.x'
p1998
asg328
S'c:/marmalade/7.4/s3e/h/GLES/glext.h'
p1999
sbsS'typeinfo.h'
p2000
g302
(g1440
g304
Ntp2001
Rp2002
(dp2003
g1444
g1452
sg1445
g1453
sg328
S'c:/marmalade/7.4/s3e/h/std/c++/typeinfo.h'
p2004
sbsS'typeinfo'
p2005
g302
(g1440
g304
Ntp2006
Rp2007
(dp2008
g1444
g1452
sg1445
g1453
sg328
S'c:/marmalade/7.4/s3e/h/std/c++/typeinfo'
p2009
sbsS'fstream.h'
p2010
g302
(g1440
g304
Ntp2011
Rp2012
(dp2013
g1444
g1452
sg1445
g1453
sg328
S'c:/marmalade/7.4/s3e/h/std/c++/fstream.h'
p2014
sbsS's3ePointer.h'
p2015
g302
(g1440
g304
Ntp2016
Rp2017
(dp2018
g1444
g1452
sg1445
g1468
sg328
S'c:/marmalade/7.4/s3e/h/s3ePointer.h'
p2019
sbsS'IwMemBucket.h'
p2020
g302
(g1440
g304
Ntp2021
Rp2022
(dp2023
g1444
g1322
sg1445
g1481
sg328
g1381
sbsS'PVRTexTool.h'
p2024
g302
(g1440
g304
Ntp2025
Rp2026
(dp2027
g1444
g1108
sg1445
(lp2028
g1100
ag1102
asg328
g1114
sbsS's3eGL.h'
p2029
g302
(g1440
g304
Ntp2030
Rp2031
(dp2032
g1444
g1452
sg1445
g1468
sg328
S'c:/marmalade/7.4/s3e/h/s3eGL.h'
p2033
sbsS'IwGeomFVec2.h'
p2034
g302
(g1440
g304
Ntp2035
Rp2036
(dp2037
g1444
g1168
sg1445
g1502
sg328
g1194
sbsS'IwGeomSVec4.h'
p2038
g302
(g1440
g304
Ntp2039
Rp2040
(dp2041
g1444
g1168
sg1445
g1502
sg328
g1192
sbsS'poll.h'
p2042
g302
(g1440
g304
Ntp2043
Rp2044
(dp2045
g1444
g1452
sg1445
g1474
sg328
S'c:/marmalade/7.4/s3e/h/std/poll.h'
p2046
sbsS'IwMatAnim.h'
p2047
g302
(g1440
g304
Ntp2048
Rp2049
(dp2050
g1444
g1268
sg1445
g1574
sg328
g1293
sbsS'PVRTexTool.defines.txt'
p2051
g302
(g1440
g304
Ntp2052
Rp2053
(dp2054
g1444
g1108
sg1445
(lp2055
g1100
ag1102
ag1104
asg328
g1109
sbsS'IwGx.h'
p2056
g302
(g1440
g304
Ntp2057
Rp2058
(dp2059
g1444
g1268
sg1445
g1574
sg328
g1275
sbsS'valarray'
p2060
g302
(g1440
g304
Ntp2061
Rp2062
(dp2063
g1444
g1452
sg1445
g1453
sg328
S'c:/marmalade/7.4/s3e/h/std/c++/valarray'
p2064
sbsS'iosfwd'
p2065
g302
(g1440
g304
Ntp2066
Rp2067
(dp2068
g1444
g1452
sg1445
g1453
sg328
S'c:/marmalade/7.4/s3e/h/std/c++/iosfwd'
p2069
sbsS'gl2.h'
p2070
g302
(g1440
g304
Ntp2071
Rp2072
(dp2073
g1444
g1452
sg1445
g1689
sg328
S'c:/marmalade/7.4/s3e/h/GLES2/gl2.h'
p2074
sbsS'jpegint.h'
p2075
g302
(g1440
g304
Ntp2076
Rp2077
(dp2078
g1444
g1033
sg1445
g1532
sg328
g1056
sbsS'stdiostream.h'
p2079
g302
(g1440
g304
Ntp2080
Rp2081
(dp2082
g1444
g1452
sg1445
g1453
sg328
S'c:/marmalade/7.4/s3e/h/std/c++/stdiostream.h'
p2083
sbsS'mem.h'
p2084
g302
(g1440
g304
Ntp2085
Rp2086
(dp2087
g1444
g1452
sg1445
g1453
sg328
S'c:/marmalade/7.4/s3e/h/std/c++/mem.h'
p2088
sbsS'jerror.h'
p2089
g302
(g1440
g304
Ntp2090
Rp2091
(dp2092
g1444
g1033
sg1445
g1532
sg328
g1031
sbsS'zconf.h'
p2093
g302
(g1440
g304
Ntp2094
Rp2095
(dp2096
g1444
g1427
sg1445
(lp2097
g1422
ag1018
asg328
g1425
sbsS's3e.config.txt'
p2098
g302
(g1440
g304
Ntp2099
Rp2100
(dp2101
g1444
g1452
sg1445
g1468
sg328
S'c:/marmalade/7.4/s3e/s3e.config.txt'
p2102
sbsS'numeric'
p2103
g302
(g1440
g304
Ntp2104
Rp2105
(dp2106
g1444
g1452
sg1445
g1453
sg328
S'c:/marmalade/7.4/s3e/h/std/c++/numeric'
p2107
sbsS'utime.h'
p2108
g302
(g1440
g304
Ntp2109
Rp2110
(dp2111
g1444
g1452
sg1445
g1474
sg328
S'c:/marmalade/7.4/s3e/h/std/utime.h'
p2112
sbsS'jdhuff.h'
p2113
g302
(g1440
g304
Ntp2114
Rp2115
(dp2116
g1444
g1033
sg1445
g1532
sg328
g1054
sbsS'IwGxStream.h'
p2117
g302
(g1440
g304
Ntp2118
Rp2119
(dp2120
g1444
g1268
sg1445
g1574
sg328
g1295
sbsS'IwImage.h'
p2121
g302
(g1440
g304
Ntp2122
Rp2123
(dp2124
g1444
g1322
sg1445
g1481
sg328
g1377
sbsS's3eImagePicker.h'
p2125
g302
(g1440
g304
Ntp2126
Rp2127
(dp2128
g1444
g1452
sg1445
g1657
sg328
S'c:/marmalade/7.4/s3e/h/ext/s3eImagePicker.h'
p2129
sbsS'IwTextParserITX.h'
p2130
g302
(g1440
g304
Ntp2131
Rp2132
(dp2133
g1444
g1322
sg1445
g1481
sg328
g1341
sbsS'stdlib.h'
p2134
g302
(g1440
g304
Ntp2135
Rp2136
(dp2137
g1444
g1452
sg1445
g1474
sg328
S'c:/marmalade/7.4/s3e/h/std/stdlib.h'
p2138
sbsS'IwCopyingPtr.h'
p2139
g302
(g1440
g304
Ntp2140
Rp2141
(dp2142
g1444
g1322
sg1445
g1481
sg328
g1327
sbsS'iostream'
p2143
g302
(g1440
g304
Ntp2144
Rp2145
(dp2146
g1444
g1452
sg1445
g1453
sg328
S'c:/marmalade/7.4/s3e/h/std/c++/iostream'
p2147
sbsS'png.h'
p2148
g302
(g1440
g304
Ntp2149
Rp2150
(dp2151
g1444
g1022
sg1445
(lp2152
g1016
ag1018
asg328
g1020
sbsS'stddef.h'
p2153
g302
(g1440
g304
Ntp2154
Rp2155
(dp2156
g1444
g1452
sg1445
g1474
sg328
S'c:/marmalade/7.4/s3e/h/std/stddef.h'
p2157
sbsS'setjmp_win32.h'
p2158
g302
(g1440
g304
Ntp2159
Rp2160
(dp2161
g1444
g1452
sg1445
g1474
sg328
S'c:/marmalade/7.4/s3e/h/std/setjmp_win32.h'
p2162
sbsS'IwGxPrint.h'
p2163
g302
(g1440
g304
Ntp2164
Rp2165
(dp2166
g1444
g1268
sg1445
g1574
sg328
g1273
sbsS'iwgx_public.defines.txt'
p2167
g302
(g1440
g304
Ntp2168
Rp2169
(dp2170
g1444
g1268
sg1445
g1574
sg328
g1310
sbsS'streambuf.h'
p2171
g302
(g1440
g304
Ntp2172
Rp2173
(dp2174
g1444
g1452
sg1445
g1453
sg328
S'c:/marmalade/7.4/s3e/h/std/c++/streambuf.h'
p2175
sbsS'IwGeomFPlane.h'
p2176
g302
(g1440
g304
Ntp2177
Rp2178
(dp2179
g1444
g1168
sg1445
g1502
sg328
g1234
sbsS'wchar.h'
p2180
g302
(g1440
g304
Ntp2181
Rp2182
(dp2183
g1444
g1452
sg1445
g1474
sg328
S'c:/marmalade/7.4/s3e/h/std/wchar.h'
p2184
sbsS's3eCameraCapture.h'
p2185
g302
(g1440
g304
Ntp2186
Rp2187
(dp2188
g1444
g1452
sg1445
g1657
sg328
S'c:/marmalade/7.4/s3e/h/ext/s3eCameraCapture.h'
p2189
sbsS'eglext.h'
p2190
g302
(g1440
g304
Ntp2191
Rp2192
(dp2193
g1444
g1452
sg1445
g1781
sg328
S'c:/marmalade/7.4/s3e/h/EGL/eglext.h'
p2194
sbsS'IwResHandlerImage.h'
p2195
g302
(g1440
g304
Ntp2196
Rp2197
(dp2198
g1444
g1244
sg1445
g1697
sg328
g1258
sbsS'Sprite.cpp'
p2199
g302
(g1440
g304
Ntp2200
Rp2201
(dp2202
g1444
g1077
sg1445
g1716
sg328
g1086
sbsS'strstream.h'
p2203
g302
(g1440
g304
Ntp2204
Rp2205
(dp2206
g1444
g1452
sg1445
g1453
sg328
S'c:/marmalade/7.4/s3e/h/std/c++/strstream.h'
p2207
sbsS'tiniconv.h'
p2208
g302
(g1440
g304
Ntp2209
Rp2210
(dp2211
g1444
g1067
sg1445
g1896
sg328
g1071
sbsS'IwGLExt.h'
p2212
g302
(g1440
g304
Ntp2213
Rp2214
(dp2215
g1444
g1125
sg1445
g1462
sg328
g1128
sbsS'app.icf'
p2216
g302
(g1440
g304
Ntp2217
Rp2218
(dp2219
g1444
(dp2220
sg1445
g4
sg328
S'c:/Users/YUSUKE-SATO/Documents/GitHub/MonkFlip/MonkFlip/data/app.icf'
p2221
sbsS'IwClassFactory.h'
p2222
g302
(g1440
g304
Ntp2223
Rp2224
(dp2225
g1444
g1322
sg1445
g1481
sg328
g1355
sbsS'file.h'
p2226
g302
(g1440
g304
Ntp2227
Rp2228
(dp2229
g1444
g1452
sg1445
g1588
sg328
S'c:/marmalade/7.4/s3e/h/std/sys/file.h'
p2230
sbsS'cstring'
p2231
g302
(g1440
g304
Ntp2232
Rp2233
(dp2234
g1444
g1452
sg1445
g1453
sg328
S'c:/marmalade/7.4/s3e/h/std/c++/cstring'
p2235
sbsS'iwutil.config.txt'
p2236
g302
(g1440
g304
Ntp2237
Rp2238
(dp2239
g1444
g1322
sg1445
g1481
sg328
g1389
sbsS's3eSMS.h'
p2240
g302
(g1440
g304
Ntp2241
Rp2242
(dp2243
g1444
g1452
sg1445
g1657
sg328
S'c:/marmalade/7.4/s3e/h/ext/s3eSMS.h'
p2244
sbsS'limits.h'
p2245
g302
(g1440
g304
Ntp2246
Rp2247
(dp2248
g1444
g1452
sg1445
g1474
sg328
S'c:/marmalade/7.4/s3e/h/std/limits.h'
p2249
sbsS'iwgl.config.txt'
p2250
g302
(g1440
g304
Ntp2251
Rp2252
(dp2253
g1444
g1125
sg1445
g1462
sg328
g1123
sbsS'IwMaterial.h'
p2254
g302
(g1440
g304
Ntp2255
Rp2256
(dp2257
g1444
g1268
sg1445
g1574
sg328
g1289
sbsS'PVRTexTool_interface.cpp'
p2258
g302
(g1440
g304
Ntp2259
Rp2260
(dp2261
g1444
g1108
sg1445
g2055
sg328
g1106
sbsS'IwGxSurface.h'
p2262
g302
(g1440
g304
Ntp2263
Rp2264
(dp2265
g1444
g1268
sg1445
g1574
sg328
g1316
sbsS's3eSocket.h'
p2266
g302
(g1440
g304
Ntp2267
Rp2268
(dp2269
g1444
g1452
sg1445
g1468
sg328
S'c:/marmalade/7.4/s3e/h/s3eSocket.h'
p2270
sbsS'IwAutoFile.h'
p2271
g302
(g1440
g304
Ntp2272
Rp2273
(dp2274
g1444
g1322
sg1445
g1481
sg328
g1408
sbsS'ipc.h'
p2275
g302
(g1440
g304
Ntp2276
Rp2277
(dp2278
g1444
g1452
sg1445
g1588
sg328
S'c:/marmalade/7.4/s3e/h/std/sys/ipc.h'
p2279
sbsS'poll_1.h'
p2280
g302
(g1440
g304
Ntp2281
Rp2282
(dp2283
g1444
g1452
sg1445
g1588
sg328
S'c:/marmalade/7.4/s3e/h/std/sys/poll.h'
p2284
sbsS's3eThread.h'
p2285
g302
(g1440
g304
Ntp2286
Rp2287
(dp2288
g1444
g1452
sg1445
g1468
sg328
S'c:/marmalade/7.4/s3e/h/s3eThread.h'
p2289
sbsS'ucontext.h'
p2290
g302
(g1440
g304
Ntp2291
Rp2292
(dp2293
g1444
g1452
sg1445
g1474
sg328
S'c:/marmalade/7.4/s3e/h/std/ucontext.h'
p2294
sbsS'time.h'
p2295
g302
(g1440
g304
Ntp2296
Rp2297
(dp2298
g1444
g1452
sg1445
g1474
sg328
S'c:/marmalade/7.4/s3e/h/std/time.h'
p2299
sbsS'jchuff.h'
p2300
g302
(g1440
g304
Ntp2301
Rp2302
(dp2303
g1444
g1033
sg1445
g1532
sg328
g1036
sbsS's3eSoundRecord.h'
p2304
g302
(g1440
g304
Ntp2305
Rp2306
(dp2307
g1444
g1452
sg1445
g1468
sg328
S'c:/marmalade/7.4/s3e/h/s3eSoundRecord.h'
p2308
sbsS'IwFibre.h'
p2309
g302
(g1440
g304
Ntp2310
Rp2311
(dp2312
g1444
g1322
sg1445
g1481
sg328
g1397
sbsS's3eVersion.h'
p2313
g302
(g1440
g304
Ntp2314
Rp2315
(dp2316
g1444
g1452
sg1445
g1468
sg328
S'c:/marmalade/7.4/s3e/h/s3eVersion.h'
p2317
sbsS'IwGxFontGlyph.h'
p2318
g302
(g1440
g304
Ntp2319
Rp2320
(dp2321
g1444
g1146
sg1445
g1446
sg328
g1147
sbsS's3eTypes.h'
p2322
g302
(g1440
g304
Ntp2323
Rp2324
(dp2325
g1444
g1452
sg1445
g1468
sg328
S'c:/marmalade/7.4/s3e/h/s3eTypes.h'
p2326
sbsS'signal_2.h'
p2327
g302
(g1440
g304
Ntp2328
Rp2329
(dp2330
g1444
g1452
sg1445
g1453
sg328
S'c:/marmalade/7.4/s3e/h/std/c++/signal.h'
p2331
sbsS'termios.h'
p2332
g302
(g1440
g304
Ntp2333
Rp2334
(dp2335
g1444
g1452
sg1445
g1474
sg328
S'c:/marmalade/7.4/s3e/h/std/termios.h'
p2336
sbsS'slist'
p2337
g302
(g1440
g304
Ntp2338
Rp2339
(dp2340
g1444
g1452
sg1445
g1453
sg328
S'c:/marmalade/7.4/s3e/h/std/c++/slist'
p2341
sbsS'cstdlib'
p2342
g302
(g1440
g304
Ntp2343
Rp2344
(dp2345
g1444
g1452
sg1445
g1453
sg328
S'c:/marmalade/7.4/s3e/h/std/c++/cstdlib'
p2346
sbsS's3eLocation.h'
p2347
g302
(g1440
g304
Ntp2348
Rp2349
(dp2350
g1444
g1452
sg1445
g1468
sg328
S'c:/marmalade/7.4/s3e/h/s3eLocation.h'
p2351
sbsS'IwMemBucketHelpers.h'
p2352
g302
(g1440
g304
Ntp2353
Rp2354
(dp2355
g1444
g1322
sg1445
g1481
sg328
g1369
sbsS's3eHash.h'
p2356
g302
(g1440
g304
Ntp2357
Rp2358
(dp2359
g1444
g1452
sg1445
g1468
sg328
S'c:/marmalade/7.4/s3e/h/s3eHash.h'
p2360
sbsS'IwGeomFMat.h'
p2361
g302
(g1440
g304
Ntp2362
Rp2363
(dp2364
g1444
g1168
sg1445
g1502
sg328
g1236
sbsS'type_traits.h'
p2365
g302
(g1440
g304
Ntp2366
Rp2367
(dp2368
g1444
g1452
sg1445
g1453
sg328
S'c:/marmalade/7.4/s3e/h/std/c++/type_traits.h'
p2369
sbsS'IwMenu.h'
p2370
g302
(g1440
g304
Ntp2371
Rp2372
(dp2373
g1444
g1322
sg1445
g1481
sg328
g1323
sbsS'IwResHandlerITX.h'
p2374
g302
(g1440
g304
Ntp2375
Rp2376
(dp2377
g1444
g1244
sg1445
g1697
sg328
g1242
sbsS'IwArray.h'
p2378
g302
(g1440
g304
Ntp2379
Rp2380
(dp2381
g1444
g1322
sg1445
g1481
sg328
g1387
sbsS'IwUTF8.h'
p2382
g302
(g1440
g304
Ntp2383
Rp2384
(dp2385
g1444
g1322
sg1445
g1481
sg328
g1391
sbsS'math_rvct.h'
p2386
g302
(g1440
g304
Ntp2387
Rp2388
(dp2389
g1444
g1452
sg1445
g1474
sg328
S'c:/marmalade/7.4/s3e/h/std/math_rvct.h'
p2390
sbsS'IwUtil.h'
p2391
g302
(g1440
g304
Ntp2392
Rp2393
(dp2394
g1444
g1322
sg1445
g1481
sg328
g1412
sbsS'IwFColour.h'
p2395
g302
(g1440
g304
Ntp2396
Rp2397
(dp2398
g1444
g1268
sg1445
g1574
sg328
g1279
sbsS'Screen.h'
p2399
g302
(g1440
g304
Ntp2400
Rp2401
(dp2402
g1444
g1077
sg1445
g1716
sg328
g1084
sbsS'wctype.h'
p2403
g302
(g1440
g304
Ntp2404
Rp2405
(dp2406
g1444
g1452
sg1445
g1474
sg328
S'c:/marmalade/7.4/s3e/h/std/wctype.h'
p2407
sbsS'Sprite.h'
p2408
g302
(g1440
g304
Ntp2409
Rp2410
(dp2411
g1444
g1077
sg1445
g1716
sg328
g1096
sbsS'cstddef'
p2412
g302
(g1440
g304
Ntp2413
Rp2414
(dp2415
g1444
g1452
sg1445
g1453
sg328
S'c:/marmalade/7.4/s3e/h/std/c++/cstddef'
p2416
sbsS'assert.h'
p2417
g302
(g1440
g304
Ntp2418
Rp2419
(dp2420
g1444
g1452
sg1445
g1474
sg328
S'c:/marmalade/7.4/s3e/h/std/assert.h'
p2421
sbsS'mman.h'
p2422
g302
(g1440
g304
Ntp2423
Rp2424
(dp2425
g1444
g1452
sg1445
g1588
sg328
S'c:/marmalade/7.4/s3e/h/std/sys/mman.h'
p2426
sbsS'IwRandom.h'
p2427
g302
(g1440
g304
Ntp2428
Rp2429
(dp2430
g1444
g1322
sg1445
g1481
sg328
g1335
sbsS'libgen.h'
p2431
g302
(g1440
g304
Ntp2432
Rp2433
(dp2434
g1444
g1452
sg1445
g1474
sg328
S'c:/marmalade/7.4/s3e/h/std/libgen.h'
p2435
sbsS'utsname.h'
p2436
g302
(g1440
g304
Ntp2437
Rp2438
(dp2439
g1444
g1452
sg1445
g1588
sg328
S'c:/marmalade/7.4/s3e/h/std/sys/utsname.h'
p2440
sbsS'wait.h'
p2441
g302
(g1440
g304
Ntp2442
Rp2443
(dp2444
g1444
g1452
sg1445
g1588
sg328
S'c:/marmalade/7.4/s3e/h/std/sys/wait.h'
p2445
sbsS'MonkFlip.group'
p2446
g302
(g1440
g304
Ntp2447
Rp2448
(dp2449
g1444
g1077
sg1445
(lp2450
g1433
asg328
g1435
sbsS'param.h'
p2451
g302
(g1440
g304
Ntp2452
Rp2453
(dp2454
g1444
g1452
sg1445
g1588
sg328
S'c:/marmalade/7.4/s3e/h/std/sys/param.h'
p2455
sbsS'IwDivide.h'
p2456
g302
(g1440
g304
Ntp2457
Rp2458
(dp2459
g1444
g1322
sg1445
g1481
sg328
g1383
sbsS'IwResManager.h'
p2460
g302
(g1440
g304
Ntp2461
Rp2462
(dp2463
g1444
g1244
sg1445
g1697
sg328
g1247
sbsS'ostream'
p2464
g302
(g1440
g304
Ntp2465
Rp2466
(dp2467
g1444
g1452
sg1445
g1453
sg328
S'c:/marmalade/7.4/s3e/h/std/c++/ostream'
p2468
sbsS'cwctype'
p2469
g302
(g1440
g304
Ntp2470
Rp2471
(dp2472
g1444
g1452
sg1445
g1453
sg328
S'c:/marmalade/7.4/s3e/h/std/c++/cwctype'
p2473
sbsS'set'
p2474
g302
(g1440
g304
Ntp2475
Rp2476
(dp2477
g1444
g1452
sg1445
g1453
sg328
S'c:/marmalade/7.4/s3e/h/std/c++/set'
p2478
sbsS'IwGeomSQuat.h'
p2479
g302
(g1440
g304
Ntp2480
Rp2481
(dp2482
g1444
g1168
sg1445
g1502
sg328
g1212
sbsS'locale'
p2483
g302
(g1440
g304
Ntp2484
Rp2485
(dp2486
g1444
g1452
sg1445
g1453
sg328
S'c:/marmalade/7.4/s3e/h/std/c++/locale'
p2487
sbsS'cstdio'
p2488
g302
(g1440
g304
Ntp2489
Rp2490
(dp2491
g1444
g1452
sg1445
g1453
sg328
S'c:/marmalade/7.4/s3e/h/std/c++/cstdio'
p2492
sbsS'cdjpeg.h'
p2493
g302
(g1440
g304
Ntp2494
Rp2495
(dp2496
g1444
g1033
sg1445
g1532
sg328
g1040
sbsS'IwList.h'
p2497
g302
(g1440
g304
Ntp2498
Rp2499
(dp2500
g1444
g1322
sg1445
g1481
sg328
g1351
sbsS'inttypes.h'
p2501
g302
(g1440
g304
Ntp2502
Rp2503
(dp2504
g1444
g1452
sg1445
g1474
sg328
S'c:/marmalade/7.4/s3e/h/std/inttypes.h'
p2505
sbsS'dirent.h'
p2506
g302
(g1440
g304
Ntp2507
Rp2508
(dp2509
g1444
g1452
sg1445
g1474
sg328
S'c:/marmalade/7.4/s3e/h/std/dirent.h'
p2510
sbsS'IwGeomVec3.h'
p2511
g302
(g1440
g304
Ntp2512
Rp2513
(dp2514
g1444
g1168
sg1445
g1502
sg328
g1206
sbsS'transupp.h'
p2515
g302
(g1440
g304
Ntp2516
Rp2517
(dp2518
g1444
g1033
sg1445
g1532
sg328
g1052
sbsS'IwMath.h'
p2519
g302
(g1440
g304
Ntp2520
Rp2521
(dp2522
g1444
g1322
sg1445
g1481
sg328
g1395
sbsS'Main.h'
p2523
g302
(g1440
g304
Ntp2524
Rp2525
(dp2526
g1444
g1077
sg1445
g1716
sg328
g1090
sbsS'IwGeomQuat.h'
p2527
g302
(g1440
g304
Ntp2528
Rp2529
(dp2530
g1444
g1168
sg1445
g1502
sg328
g1188
sbsS'glplatform.h'
p2531
g302
(g1440
g304
Ntp2532
Rp2533
(dp2534
g1444
g1452
sg1445
g1996
sg328
S'c:/marmalade/7.4/s3e/h/GLES/glplatform.h'
p2535
sbsS'bitset'
p2536
g302
(g1440
g304
Ntp2537
Rp2538
(dp2539
g1444
g1452
sg1445
g1453
sg328
S'c:/marmalade/7.4/s3e/h/std/c++/bitset'
p2540
sbsS'alloca.h'
p2541
g302
(g1440
g304
Ntp2542
Rp2543
(dp2544
g1444
g1452
sg1445
g1474
sg328
S'c:/marmalade/7.4/s3e/h/std/alloca.h'
p2545
sbsS'IwResHandler.h'
p2546
g302
(g1440
g304
Ntp2547
Rp2548
(dp2549
g1444
g1244
sg1445
g1697
sg328
g1260
sbsS'IwResHandlerMTL.h'
p2550
g302
(g1440
g304
Ntp2551
Rp2552
(dp2553
g1444
g1268
sg1445
g1574
sg328
g1297
sbsS'IwRuntime.h'
p2554
g302
(g1440
g304
Ntp2555
Rp2556
(dp2557
g1444
g1322
sg1445
g1481
sg328
g1367
sbsS'limits'
p2558
g302
(g1440
g304
Ntp2559
Rp2560
(dp2561
g1444
g1452
sg1445
g1453
sg328
S'c:/marmalade/7.4/s3e/h/std/c++/limits'
p2562
sbsS'IwGeomBBox.h'
p2563
g302
(g1440
g304
Ntp2564
Rp2565
(dp2566
g1444
g1168
sg1445
g1502
sg328
g1218
sbsS's3eContacts.h'
p2567
g302
(g1440
g304
Ntp2568
Rp2569
(dp2570
g1444
g1452
sg1445
g1468
sg328
S'c:/marmalade/7.4/s3e/h/s3eContacts.h'
p2571
sbsS's3eLicense.h'
p2572
g302
(g1440
g304
Ntp2573
Rp2574
(dp2575
g1444
g1452
sg1445
g1468
sg328
S'c:/marmalade/7.4/s3e/h/s3eLicense.h'
p2576
sbsS'iwgx.config.txt'
p2577
g302
(g1440
g304
Ntp2578
Rp2579
(dp2580
g1444
g1268
sg1445
g1574
sg328
g1303
sbsS'IwTextParser.h'
p2581
g302
(g1440
g304
Ntp2582
Rp2583
(dp2584
g1444
g1322
sg1445
g1481
sg328
g1320
sbsS's3eTimer.h'
p2585
g302
(g1440
g304
Ntp2586
Rp2587
(dp2588
g1444
g1452
sg1445
g1468
sg328
S'c:/marmalade/7.4/s3e/h/s3eTimer.h'
p2589
sbsS'IwGeomVec.h'
p2590
g302
(g1440
g304
Ntp2591
Rp2592
(dp2593
g1444
g1168
sg1445
g1502
sg328
g1196
sbsS'IwSerialise.h'
p2594
g302
(g1440
g304
Ntp2595
Rp2596
(dp2597
g1444
g1322
sg1445
g1481
sg328
g1353
sbsS'cstdarg'
p2598
g302
(g1440
g304
Ntp2599
Rp2600
(dp2601
g1444
g1452
sg1445
g1453
sg328
S'c:/marmalade/7.4/s3e/h/std/c++/cstdarg'
p2602
sbsS'gl2ext.h'
p2603
g302
(g1440
g304
Ntp2604
Rp2605
(dp2606
g1444
g1452
sg1445
g1689
sg328
S'c:/marmalade/7.4/s3e/h/GLES2/gl2ext.h'
p2607
sbsS'IwChar.h'
p2608
g302
(g1440
g304
Ntp2609
Rp2610
(dp2611
g1444
g1322
sg1445
g1481
sg328
g1373
sbsS's3eSound.h'
p2612
g302
(g1440
g304
Ntp2613
Rp2614
(dp2615
g1444
g1452
sg1445
g1468
sg328
S'c:/marmalade/7.4/s3e/h/s3eSound.h'
p2616
sbsS'IwVariableBitField.h'
p2617
g302
(g1440
g304
Ntp2618
Rp2619
(dp2620
g1444
g1322
sg1445
g1481
sg328
g1418
sbsS'exception.h'
p2621
g302
(g1440
g304
Ntp2622
Rp2623
(dp2624
g1444
g1452
sg1445
g1453
sg328
S'c:/marmalade/7.4/s3e/h/std/c++/exception.h'
p2625
sbsS'Button.cpp'
p2626
g302
(g1440
g304
Ntp2627
Rp2628
(dp2629
g1444
g1077
sg1445
g1716
sg328
g1082
sbsS'iwgeom.config.txt'
p2630
g302
(g1440
g304
Ntp2631
Rp2632
(dp2633
g1444
g1168
sg1445
g1502
sg328
g1166
sbsS'iwgx.mkf'
p2634
g302
(g1440
g304
Ntp2635
Rp2636
(dp2637
g1444
g1309
sg1445
g1574
sg328
g1307
sbsS'gl.h'
p2638
g302
(g1440
g304
Ntp2639
Rp2640
(dp2641
g1444
g1452
sg1445
g1996
sg328
S'c:/marmalade/7.4/s3e/h/GLES/gl.h'
p2642
sbsS'zlib.h'
p2643
g302
(g1440
g304
Ntp2644
Rp2645
(dp2646
g1444
g1427
sg1445
g2097
sg328
g1428
sbsS'temp_defines_release.h'
p2647
g302
(g1440
g304
Ntp2648
Rp2649
(dp2650
g1444
(lp2651
sg1445
(lp2652
S"'generated files'"
p2653
asg328
S'c:/Users/YUSUKE-SATO/Documents/GitHub/MonkFlip/MonkFlip/build_monkflip_vc12x/temp_defines_release.h'
p2654
sbsS'iwgl.mkf'
p2655
g302
(g1440
g304
Ntp2656
Rp2657
(dp2658
g1444
g1122
sg1445
g1462
sg328
g1120
sbsS'IwColour.h'
p2659
g302
(g1440
g304
Ntp2660
Rp2661
(dp2662
g1444
g1268
sg1445
g1574
sg328
g1281
sbsS's3eLibrary.h'
p2663
g302
(g1440
g304
Ntp2664
Rp2665
(dp2666
g1444
g1452
sg1445
g1657
sg328
S'c:/marmalade/7.4/s3e/h/ext/s3eLibrary.h'
p2667
sbsS'types.h'
p2668
g302
(g1440
g304
Ntp2669
Rp2670
(dp2671
g1444
g1452
sg1445
g1588
sg328
S'c:/marmalade/7.4/s3e/h/std/sys/types.h'
p2672
sbsS'ifaddrs.h'
p2673
g302
(g1440
g304
Ntp2674
Rp2675
(dp2676
g1444
g1452
sg1445
g1474
sg328
S'c:/marmalade/7.4/s3e/h/std/ifaddrs.h'
p2677
sbsS'strstream'
p2678
g302
(g1440
g304
Ntp2679
Rp2680
(dp2681
g1444
g1452
sg1445
g1453
sg328
S'c:/marmalade/7.4/s3e/h/std/c++/strstream'
p2682
sbsS'exception'
p2683
g302
(g1440
g304
Ntp2684
Rp2685
(dp2686
g1444
g1452
sg1445
g1453
sg328
S'c:/marmalade/7.4/s3e/h/std/c++/exception'
p2687
sbsS'rlocks.h'
p2688
g302
(g1440
g304
Ntp2689
Rp2690
(dp2691
g1444
g1452
sg1445
g1453
sg328
S'c:/marmalade/7.4/s3e/h/std/c++/rlocks.h'
p2692
sbsS'ioctl.h'
p2693
g302
(g1440
g304
Ntp2694
Rp2695
(dp2696
g1444
g1452
sg1445
g1588
sg328
S'c:/marmalade/7.4/s3e/h/std/sys/ioctl.h'
p2697
sbsS'rope'
p2698
g302
(g1440
g304
Ntp2699
Rp2700
(dp2701
g1444
g1452
sg1445
g1453
sg328
S'c:/marmalade/7.4/s3e/h/std/c++/rope'
p2702
sbsS'jinclude.h'
p2703
g302
(g1440
g304
Ntp2704
Rp2705
(dp2706
g1444
g1033
sg1445
g1532
sg328
g1042
sbsS'IwEvent.h'
p2707
g302
(g1440
g304
Ntp2708
Rp2709
(dp2710
g1444
g1322
sg1445
g1481
sg328
g1393
sbsS'IwOptimiseSize.h'
p2711
g302
(g1440
g304
Ntp2712
Rp2713
(dp2714
g1444
g1322
sg1445
g1481
sg328
g1420
sbsS'iwgxfont_public.defines.txt'
p2715
g302
(g1440
g304
Ntp2716
Rp2717
(dp2718
g1444
g1146
sg1445
g1446
sg328
g1144
sbsS'iconv.h'
p2719
g302
(g1440
g304
Ntp2720
Rp2721
(dp2722
g1444
g1452
sg1445
g1474
sg328
S'c:/marmalade/7.4/s3e/h/std/iconv.h'
p2723
sbsS'sendfile.h'
p2724
g302
(g1440
g304
Ntp2725
Rp2726
(dp2727
g1444
g1452
sg1445
g1588
sg328
S'c:/marmalade/7.4/s3e/h/std/sys/sendfile.h'
p2728
sbsS'IwGeomSphere.h'
p2729
g302
(g1440
g304
Ntp2730
Rp2731
(dp2732
g1444
g1168
sg1445
g1502
sg328
g1226
sbsS'tiniconv.mkf'
p2733
g302
(g1440
g304
Ntp2734
Rp2735
(dp2736
g1444
g1070
sg1445
g1896
sg328
g1068
sbsS'jdct.h'
p2737
g302
(g1440
g304
Ntp2738
Rp2739
(dp2740
g1444
g1033
sg1445
g1532
sg328
g1048
sbsS'cctype'
p2741
g302
(g1440
g304
Ntp2742
Rp2743
(dp2744
g1444
g1452
sg1445
g1453
sg328
S'c:/marmalade/7.4/s3e/h/std/c++/cctype'
p2745
sbsS's3eConfig.h'
p2746
g302
(g1440
g304
Ntp2747
Rp2748
(dp2749
g1444
g1452
sg1445
g1468
sg328
S'c:/marmalade/7.4/s3e/h/s3eConfig.h'
p2750
sbsS'IwHashString.h'
p2751
g302
(g1440
g304
Ntp2752
Rp2753
(dp2754
g1444
g1322
sg1445
g1481
sg328
g1345
sbsS'stat.h'
p2755
g302
(g1440
g304
Ntp2756
Rp2757
(dp2758
g1444
g1452
sg1445
g1588
sg328
S'c:/marmalade/7.4/s3e/h/std/sys/stat.h'
p2759
sbsS'byteswap.h'
p2760
g302
(g1440
g304
Ntp2761
Rp2762
(dp2763
g1444
g1452
sg1445
g1474
sg328
S'c:/marmalade/7.4/s3e/h/std/byteswap.h'
p2764
sbsS'iwresmanager.mkf'
p2765
g302
(g1440
g304
Ntp2766
Rp2767
(dp2768
g1444
g1257
sg1445
g1697
sg328
g1255
sbsS'IwUtilInitTerm.h'
p2769
g302
(g1440
g304
Ntp2770
Rp2771
(dp2772
g1444
g1322
sg1445
g1481
sg328
g1325
sbsS'pthread_1.h'
p2773
g302
(g1440
g304
Ntp2774
Rp2775
(dp2776
g1444
g1452
sg1445
g1453
sg328
S'c:/marmalade/7.4/s3e/h/std/c++/pthread.h'
p2777
sbsS'iw2d.mkf'
p2778
g302
(g1440
g304
Ntp2779
Rp2780
(dp2781
g1444
g1141
sg1445
g1537
sg328
g1139
sbsS'complex'
p2782
g302
(g1440
g304
Ntp2783
Rp2784
(dp2785
g1444
g1452
sg1445
g1453
sg328
S'c:/marmalade/7.4/s3e/h/std/c++/complex'
p2786
sbsS's3e.icf'
p2787
g302
(g1440
g304
Ntp2788
Rp2789
(dp2790
g1444
g1452
sg1445
g1468
sg328
S'c:/marmalade/7.4/s3e/s3e.icf'
p2791
sbsS'sem.h'
p2792
g302
(g1440
g304
Ntp2793
Rp2794
(dp2795
g1444
g1452
sg1445
g1588
sg328
S'c:/marmalade/7.4/s3e/h/std/sys/sem.h'
p2796
sbsS'IwGxFontState.h'
p2797
g302
(g1440
g304
Ntp2798
Rp2799
(dp2800
g1444
g1146
sg1445
g1446
sg328
g1157
sbsS'stdio.h'
p2801
g302
(g1440
g304
Ntp2802
Rp2803
(dp2804
g1444
g1452
sg1445
g1474
sg328
S'c:/marmalade/7.4/s3e/h/std/stdio.h'
p2805
sbsS'Game.h'
p2806
g302
(g1440
g304
Ntp2807
Rp2808
(dp2809
g1444
g1077
sg1445
g1716
sg328
g1088
sbsS'jmemsys.h'
p2810
g302
(g1440
g304
Ntp2811
Rp2812
(dp2813
g1444
g1033
sg1445
g1532
sg328
g1034
sbsS'ios'
p2814
g302
(g1440
g304
Ntp2815
Rp2816
(dp2817
g1444
g1452
sg1445
g1453
sg328
S'c:/marmalade/7.4/s3e/h/std/c++/ios'
p2818
sbsS'IwGeomFVec4.h'
p2819
g302
(g1440
g304
Ntp2820
Rp2821
(dp2822
g1444
g1168
sg1445
g1502
sg328
g1186
sbsS'stack'
p2823
g302
(g1440
g304
Ntp2824
Rp2825
(dp2826
g1444
g1452
sg1445
g1453
sg328
S'c:/marmalade/7.4/s3e/h/std/c++/stack'
p2827
sbsS'new.h'
p2828
g302
(g1440
g304
Ntp2829
Rp2830
(dp2831
g1444
g1452
sg1445
g1453
sg328
S'c:/marmalade/7.4/s3e/h/std/c++/new.h'
p2832
sbsS's3eEMail.h'
p2833
g302
(g1440
g304
Ntp2834
Rp2835
(dp2836
g1444
g1452
sg1445
g1657
sg328
S'c:/marmalade/7.4/s3e/h/ext/s3eEMail.h'
p2837
sbsS's3eVideo.h'
p2838
g302
(g1440
g304
Ntp2839
Rp2840
(dp2841
g1444
g1452
sg1445
g1468
sg328
S'c:/marmalade/7.4/s3e/h/s3eVideo.h'
p2842
sbsS'pngconf.h'
p2843
g302
(g1440
g304
Ntp2844
Rp2845
(dp2846
g1444
g1022
sg1445
g2152
sg328
g1023
sbsS'pwd.h'
p2847
g302
(g1440
g304
Ntp2848
Rp2849
(dp2850
g1444
g1452
sg1445
g1474
sg328
S'c:/marmalade/7.4/s3e/h/std/pwd.h'
p2851
sbsS'IwOptimiseThumb.h'
p2852
g302
(g1440
g304
Ntp2853
Rp2854
(dp2855
g1444
g1322
sg1445
g1481
sg328
g1410
sbsS'gl3.h'
p2856
g302
(g1440
g304
Ntp2857
Rp2858
(dp2859
g1444
g1452
sg1445
g1749
sg328
S'c:/marmalade/7.4/s3e/h/GLES3/gl3.h'
p2860
sbsS'IwClip.h'
p2861
g302
(g1440
g304
Ntp2862
Rp2863
(dp2864
g1444
g1268
sg1445
g1574
sg328
g1285
sbsS'iwresmanager.config.txt'
p2865
g302
(g1440
g304
Ntp2866
Rp2867
(dp2868
g1444
g1244
sg1445
g1697
sg328
g1262
sbsS'IwGxShaderTechnique.h'
p2869
g302
(g1440
g304
Ntp2870
Rp2871
(dp2872
g1444
g1268
sg1445
g1574
sg328
g1312
sbsS'IwCore.h'
p2873
g302
(g1440
g304
Ntp2874
Rp2875
(dp2876
g1444
g1322
sg1445
g1481
sg328
g1339
sbsS'cfloat'
p2877
g302
(g1440
g304
Ntp2878
Rp2879
(dp2880
g1444
g1452
sg1445
g1453
sg328
S'c:/marmalade/7.4/s3e/h/std/c++/cfloat'
p2881
sbsS'IwGeomMat2D.h'
p2882
g302
(g1440
g304
Ntp2883
Rp2884
(dp2885
g1444
g1168
sg1445
g1502
sg328
g1224
sbsS'IwAllocator.h'
p2886
g302
(g1440
g304
Ntp2887
Rp2888
(dp2889
g1444
g1322
sg1445
g1481
sg328
g1359
sbsS'IwPath.h'
p2890
g302
(g1440
g304
Ntp2891
Rp2892
(dp2893
g1444
g1322
sg1445
g1481
sg328
g1414
sbsS'iwgxfont.mkf'
p2894
g302
(g1440
g304
Ntp2895
Rp2896
(dp2897
g1444
g1163
sg1445
g1446
sg328
g1161
sbsS'IwTexture.h'
p2898
g302
(g1440
g304
Ntp2899
Rp2900
(dp2901
g1444
g1268
sg1445
g1574
sg328
g1277
sbsS'IwGeomVec.h.tpl'
p2902
g302
(g1440
g304
Ntp2903
Rp2904
(dp2905
g1444
g1168
sg1445
g1502
sg328
g1176
sbsS's3eAccelerometer.h'
p2906
g302
(g1440
g304
Ntp2907
Rp2908
(dp2909
g1444
g1452
sg1445
g1468
sg328
S'c:/marmalade/7.4/s3e/h/s3eAccelerometer.h'
p2910
sbsS'setjmp.h'
p2911
g302
(g1440
g304
Ntp2912
Rp2913
(dp2914
g1444
g1452
sg1445
g1474
sg328
S'c:/marmalade/7.4/s3e/h/std/setjmp.h'
p2915
sbsS'IwFile.h'
p2916
g302
(g1440
g304
Ntp2917
Rp2918
(dp2919
g1444
g1322
sg1445
g1481
sg328
g1365
sbsS'IwTextParseable.h'
p2920
g302
(g1440
g304
Ntp2921
Rp2922
(dp2923
g1444
g1322
sg1445
g1481
sg328
g1363
sbsS'istream.h'
p2924
g302
(g1440
g304
Ntp2925
Rp2926
(dp2927
g1444
g1452
sg1445
g1453
sg328
S'c:/marmalade/7.4/s3e/h/std/c++/istream.h'
p2928
sbsS'Screen.cpp'
p2929
g302
(g1440
g304
Ntp2930
Rp2931
(dp2932
g1444
g1077
sg1445
g1716
sg328
g1080
sbsS'stdint.h'
p2933
g302
(g1440
g304
Ntp2934
Rp2935
(dp2936
g1444
g1452
sg1445
g1474
sg328
S'c:/marmalade/7.4/s3e/h/std/stdint.h'
p2937
sbsS'semaphore.h'
p2938
g302
(g1440
g304
Ntp2939
Rp2940
(dp2941
g1444
g1452
sg1445
g1474
sg328
S'c:/marmalade/7.4/s3e/h/std/semaphore.h'
p2942
sbsS'Main.cpp'
p2943
g302
(g1440
g304
Ntp2944
Rp2945
(dp2946
g1444
g1077
sg1445
g1716
sg328
g1078
sbsS'ctime'
p2947
g302
(g1440
g304
Ntp2948
Rp2949
(dp2950
g1444
g1452
sg1445
g1453
sg328
S'c:/marmalade/7.4/s3e/h/std/c++/ctime'
p2951
sbsS'sstream'
p2952
g302
(g1440
g304
Ntp2953
Rp2954
(dp2955
g1444
g1452
sg1445
g1453
sg328
S'c:/marmalade/7.4/s3e/h/std/c++/sstream'
p2956
sbsS'IwGeomFBBox.h'
p2957
g302
(g1440
g304
Ntp2958
Rp2959
(dp2960
g1444
g1168
sg1445
g1502
sg328
g1190
sbsS'IwDebugPrim.h'
p2961
g302
(g1440
g304
Ntp2962
Rp2963
(dp2964
g1444
g1268
sg1445
g1574
sg328
g1266
sbsS'IwGxFontContainer.h'
p2965
g302
(g1440
g304
Ntp2966
Rp2967
(dp2968
g1444
g1146
sg1445
g1446
sg328
g1159
sbsS'IwGeomSVec3.h'
p2969
g302
(g1440
g304
Ntp2970
Rp2971
(dp2972
g1444
g1168
sg1445
g1502
sg328
g1202
sbsS'cassert'
p2973
g302
(g1440
g304
Ntp2974
Rp2975
(dp2976
g1444
g1452
sg1445
g1453
sg328
S'c:/marmalade/7.4/s3e/h/std/c++/cassert'
p2977
sbsS'IwGeomFVec3.h'
p2978
g302
(g1440
g304
Ntp2979
Rp2980
(dp2981
g1444
g1168
sg1445
g1502
sg328
g1228
sbsS'streambuf'
p2982
g302
(g1440
g304
Ntp2983
Rp2984
(dp2985
g1444
g1452
sg1445
g1453
sg328
S'c:/marmalade/7.4/s3e/h/std/c++/streambuf'
p2986
sbsS's3eMetrics.h'
p2987
g302
(g1440
g304
Ntp2988
Rp2989
(dp2990
g1444
g1452
sg1445
g1657
sg328
S'c:/marmalade/7.4/s3e/h/ext/s3eMetrics.h'
p2991
sbsS'IwGxFont.h'
p2992
g302
(g1440
g304
Ntp2993
Rp2994
(dp2995
g1444
g1146
sg1445
g1446
sg328
g1151
sbsS's3eSecureStorage.h'
p2996
g302
(g1440
g304
Ntp2997
Rp2998
(dp2999
g1444
g1452
sg1445
g1468
sg328
S'c:/marmalade/7.4/s3e/h/s3eSecureStorage.h'
p3000
sbsS'string.h'
p3001
g302
(g1440
g304
Ntp3002
Rp3003
(dp3004
g1444
g1452
sg1445
g1474
sg328
S'c:/marmalade/7.4/s3e/h/std/string.h'
p3005
sbsS'IwResource.h'
p3006
g302
(g1440
g304
Ntp3007
Rp3008
(dp3009
g1444
g1322
sg1445
g1481
sg328
g1337
sbsS'IwGeomSVec2.h'
p3010
g302
(g1440
g304
Ntp3011
Rp3012
(dp3013
g1444
g1168
sg1445
g1502
sg328
g1222
sbsS'libjpeg.mkf'
p3014
g302
(g1440
g304
Ntp3015
Rp3016
(dp3017
g1444
g1062
sg1445
(lp3018
g1028
asg328
g1060
sbsS'IwGxDebug.h'
p3019
g302
(g1440
g304
Ntp3020
Rp3021
(dp3022
g1444
g1268
sg1445
g1574
sg328
g1291
sbsS'float.h'
p3023
g302
(g1440
g304
Ntp3024
Rp3025
(dp3026
g1444
g1452
sg1445
g1474
sg328
S'c:/marmalade/7.4/s3e/h/std/float.h'
p3027
sbsS'iomanip.h'
p3028
g302
(g1440
g304
Ntp3029
Rp3030
(dp3031
g1444
g1452
sg1445
g1453
sg328
S'c:/marmalade/7.4/s3e/h/std/c++/iomanip.h'
p3032
sbsS'IwKeymap.h'
p3033
g302
(g1440
g304
Ntp3034
Rp3035
(dp3036
g1444
g1322
sg1445
g1481
sg328
g1401
sbsS'IwDebug.h'
p3037
g302
(g1440
g304
Ntp3038
Rp3039
(dp3040
g1444
g1322
sg1445
g1481
sg328
g1329
sbsS's3eIOSBackgroundAudio.h'
p3041
g302
(g1440
g304
Ntp3042
Rp3043
(dp3044
g1444
g1452
sg1445
g1657
sg328
S'c:/marmalade/7.4/s3e/h/ext/s3eIOSBackgroundAudio.h'
p3045
sbsS'IwGeomMenu.h'
p3046
g302
(g1440
g304
Ntp3047
Rp3048
(dp3049
g1444
g1168
sg1445
g1502
sg328
g1182
sbsS'IwDivTable.h'
p3050
g302
(g1440
g304
Ntp3051
Rp3052
(dp3053
g1444
g1322
sg1445
g1481
sg328
g1331
sbsS'ctype.h'
p3054
g302
(g1440
g304
Ntp3055
Rp3056
(dp3057
g1444
g1452
sg1445
g1474
sg328
S'c:/marmalade/7.4/s3e/h/std/ctype.h'
p3058
sbsS'IwGeomMat.h'
p3059
g302
(g1440
g304
Ntp3060
Rp3061
(dp3062
g1444
g1168
sg1445
g1502
sg328
g1204
sbsS'IwResGroup.h'
p3063
g302
(g1440
g304
Ntp3064
Rp3065
(dp3066
g1444
g1244
sg1445
g1697
sg328
g1245
sbsS'signal_1.h'
p3067
g302
(g1440
g304
Ntp3068
Rp3069
(dp3070
g1444
g1452
sg1445
g1588
sg328
S'c:/marmalade/7.4/s3e/h/std/sys/signal.h'
p3071
sbsS'functional'
p3072
g302
(g1440
g304
Ntp3073
Rp3074
(dp3075
g1444
g1452
sg1445
g1453
sg328
S'c:/marmalade/7.4/s3e/h/std/c++/functional'
p3076
sbsS'shm.h'
p3077
g302
(g1440
g304
Ntp3078
Rp3079
(dp3080
g1444
g1452
sg1445
g1588
sg328
S'c:/marmalade/7.4/s3e/h/std/sys/shm.h'
p3081
sbsS'IwManagedList.h'
p3082
g302
(g1440
g304
Ntp3083
Rp3084
(dp3085
g1444
g1322
sg1445
g1481
sg328
g1349
sbsS'Game.cpp'
p3086
g302
(g1440
g304
Ntp3087
Rp3088
(dp3089
g1444
g1077
sg1445
g1716
sg328
g1094
sbsS'prctl.h'
p3090
g302
(g1440
g304
Ntp3091
Rp3092
(dp3093
g1444
g1452
sg1445
g1588
sg328
S'c:/marmalade/7.4/s3e/h/std/sys/prctl.h'
p3094
sbsS'un.h'
p3095
g302
(g1440
g304
Ntp3096
Rp3097
(dp3098
g1444
g1452
sg1445
g1588
sg328
S'c:/marmalade/7.4/s3e/h/std/sys/un.h'
p3099
sbsS'temp_defines_debug.h'
p3100
g302
(g1440
g304
Ntp3101
Rp3102
(dp3103
g1444
(lp3104
sg1445
(lp3105
g2653
asg328
S'c:/Users/YUSUKE-SATO/Documents/GitHub/MonkFlip/MonkFlip/build_monkflip_vc12x/temp_defines_debug.h'
p3106
sbsS'utility'
p3107
g302
(g1440
g304
Ntp3108
Rp3109
(dp3110
g1444
g1452
sg1445
g1453
sg328
S'c:/marmalade/7.4/s3e/h/std/c++/utility'
p3111
sbsS'IwGeomLegacy.h'
p3112
g302
(g1440
g304
Ntp3113
Rp3114
(dp3115
g1444
g1168
sg1445
g1502
sg328
g1210
sbsS'IwTPage.h'
p3116
g302
(g1440
g304
Ntp3117
Rp3118
(dp3119
g1444
g1268
sg1445
g1574
sg328
g1287
sbsS'IwResSerialise.h'
p3120
g302
(g1440
g304
Ntp3121
Rp3122
(dp3123
g1444
g1244
sg1445
g1697
sg328
g1251
sbsS's3eCrypto.h'
p3124
g302
(g1440
g304
Ntp3125
Rp3126
(dp3127
g1444
g1452
sg1445
g1468
sg328
S'c:/marmalade/7.4/s3e/h/s3eCrypto.h'
p3128
sbsS's3eKeyboard.h'
p3129
g302
(g1440
g304
Ntp3130
Rp3131
(dp3132
g1444
g1452
sg1445
g1468
sg328
S'c:/marmalade/7.4/s3e/h/s3eKeyboard.h'
p3133
sbsS'fcntl.h'
p3134
g302
(g1440
g304
Ntp3135
Rp3136
(dp3137
g1444
g1452
sg1445
g1474
sg328
S'c:/marmalade/7.4/s3e/h/std/fcntl.h'
p3138
sbsS'memory.h'
p3139
g302
(g1440
g304
Ntp3140
Rp3141
(dp3142
g1444
g1452
sg1445
g1474
sg328
S'c:/marmalade/7.4/s3e/h/std/memory.h'
p3143
sbsS'pthread.h'
p3144
g302
(g1440
g304
Ntp3145
Rp3146
(dp3147
g1444
g1452
sg1445
g1474
sg328
S'c:/marmalade/7.4/s3e/h/std/pthread.h'
p3148
sbsS'IwGeomIntersect.h'
p3149
g302
(g1440
g304
Ntp3150
Rp3151
(dp3152
g1444
g1168
sg1445
g1502
sg328
g1220
sbsS'algorithm'
p3153
g302
(g1440
g304
Ntp3154
Rp3155
(dp3156
g1444
g1452
sg1445
g1453
sg328
S'c:/marmalade/7.4/s3e/h/std/c++/algorithm'
p3157
sbsS'egl_1.h'
p3158
g302
(g1440
g304
Ntp3159
Rp3160
(dp3161
g1444
g1452
sg1445
g1996
sg328
S'c:/marmalade/7.4/s3e/h/GLES/egl.h'
p3162
sbsS'Button.h'
p3163
g302
(g1440
g304
Ntp3164
Rp3165
(dp3166
g1444
g1077
sg1445
g1716
sg328
g1098
sbsS'ostream.h'
p3167
g302
(g1440
g304
Ntp3168
Rp3169
(dp3170
g1444
g1452
sg1445
g1453
sg328
S'c:/marmalade/7.4/s3e/h/std/c++/ostream.h'
p3171
sbsS'stl_user_config.h'
p3172
g302
(g1440
g304
Ntp3173
Rp3174
(dp3175
g1444
g1452
sg1445
g1453
sg328
S'c:/marmalade/7.4/s3e/h/std/c++/stl_user_config.h'
p3176
sbsS'IwProfileMenu.h'
p3177
g302
(g1440
g304
Ntp3178
Rp3179
(dp3180
g1444
g1322
sg1445
g1481
sg328
g1347
sbsS'MarmaladeVersion.h'
p3181
g302
(g1440
g304
Ntp3182
Rp3183
(dp3184
g1444
g1452
sg1445
g1468
sg328
S'c:/marmalade/7.4/s3e/h/MarmaladeVersion.h'
p3185
sbsS'gl3platform.h'
p3186
g302
(g1440
g304
Ntp3187
Rp3188
(dp3189
g1444
g1452
sg1445
g1749
sg328
S'c:/marmalade/7.4/s3e/h/GLES3/gl3platform.h'
p3190
sbsS'ios.h'
p3191
g302
(g1440
g304
Ntp3192
Rp3193
(dp3194
g1444
g1452
sg1445
g1453
sg328
S'c:/marmalade/7.4/s3e/h/std/c++/ios.h'
p3195
sbsS'IwImageHelper.h'
p3196
g302
(g1440
g304
Ntp3197
Rp3198
(dp3199
g1444
g1322
sg1445
g1481
sg328
g1379
sbsS'hash_set'
p3200
g302
(g1440
g304
Ntp3201
Rp3202
(dp3203
g1444
g1452
sg1445
g1453
sg328
S'c:/marmalade/7.4/s3e/h/std/c++/hash_set'
p3204
sbsS'IwGeomFQuat.h'
p3205
g302
(g1440
g304
Ntp3206
Rp3207
(dp3208
g1444
g1168
sg1445
g1502
sg328
g1180
sbsS'jmorecfg.h'
p3209
g302
(g1440
g304
Ntp3210
Rp3211
(dp3212
g1444
g1033
sg1445
g1532
sg328
g1058
sbsS'eglplatform.h'
p3213
g302
(g1440
g304
Ntp3214
Rp3215
(dp3216
g1444
g1452
sg1445
g1781
sg328
S'c:/marmalade/7.4/s3e/h/EGL/eglplatform.h'
p3217
sbsS'cmath'
p3218
g302
(g1440
g304
Ntp3219
Rp3220
(dp3221
g1444
g1452
sg1445
g1453
sg328
S'c:/marmalade/7.4/s3e/h/std/c++/cmath'
p3222
sbsS'math_gcc.h'
p3223
g302
(g1440
g304
Ntp3224
Rp3225
(dp3226
g1444
g1452
sg1445
g1474
sg328
S'c:/marmalade/7.4/s3e/h/std/math_gcc.h'
p3227
sbsS's3eMemory.h'
p3228
g302
(g1440
g304
Ntp3229
Rp3230
(dp3231
g1444
g1452
sg1445
g1468
sg328
S'c:/marmalade/7.4/s3e/h/s3eMemory.h'
p3232
sbsS'strings.h'
p3233
g302
(g1440
g304
Ntp3234
Rp3235
(dp3236
g1444
g1452
sg1445
g1474
sg328
S'c:/marmalade/7.4/s3e/h/std/strings.h'
p3237
sbsS's3eFile.h'
p3238
g302
(g1440
g304
Ntp3239
Rp3240
(dp3241
g1444
g1452
sg1445
g1468
sg328
S'c:/marmalade/7.4/s3e/h/s3eFile.h'
p3242
sbsS'IwGxTypes.h'
p3243
g302
(g1440
g304
Ntp3244
Rp3245
(dp3246
g1444
g1268
sg1445
g1574
sg328
g1314
sbsS'cerrno'
p3247
g302
(g1440
g304
Ntp3248
Rp3249
(dp3250
g1444
g1452
sg1445
g1453
sg328
S'c:/marmalade/7.4/s3e/h/std/c++/cerrno'
p3251
sbsS'resource.h'
p3252
g302
(g1440
g304
Ntp3253
Rp3254
(dp3255
g1444
g1452
sg1445
g1588
sg328
S'c:/marmalade/7.4/s3e/h/std/sys/resource.h'
p3256
sbsS'clocale'
p3257
g302
(g1440
g304
Ntp3258
Rp3259
(dp3260
g1444
g1452
sg1445
g1453
sg328
S'c:/marmalade/7.4/s3e/h/std/c++/clocale'
p3261
sbsS'pvrtextool.mkf'
p3262
g302
(g1440
g304
Ntp3263
Rp3264
(dp3265
g1444
g1113
sg1445
g2028
sg328
g1111
sbsS'csetjmp'
p3266
g302
(g1440
g304
Ntp3267
Rp3268
(dp3269
g1444
g1452
sg1445
g1453
sg328
S'c:/marmalade/7.4/s3e/h/std/c++/csetjmp'
p3270
sbsS'netdb.h'
p3271
g302
(g1440
g304
Ntp3272
Rp3273
(dp3274
g1444
g1452
sg1445
g1474
sg328
S'c:/marmalade/7.4/s3e/h/std/netdb.h'
p3275
sbsS's3eAndroidJNI.h'
p3276
g302
(g1440
g304
Ntp3277
Rp3278
(dp3279
g1444
g1452
sg1445
g1657
sg328
S'c:/marmalade/7.4/s3e/h/ext/s3eAndroidJNI.h'
p3280
sbsS'stdexcept'
p3281
g302
(g1440
g304
Ntp3282
Rp3283
(dp3284
g1444
g1452
sg1445
g1453
sg328
S'c:/marmalade/7.4/s3e/h/std/c++/stdexcept'
p3285
sbsS'math.h'
p3286
g302
(g1440
g304
Ntp3287
Rp3288
(dp3289
g1444
g1452
sg1445
g1474
sg328
S'c:/marmalade/7.4/s3e/h/std/math.h'
p3290
sbsS'stdbool.h'
p3291
g302
(g1440
g304
Ntp3292
Rp3293
(dp3294
g1444
g1452
sg1445
g1474
sg328
S'c:/marmalade/7.4/s3e/h/std/stdbool.h'
p3295
sbsS'uio.h'
p3296
g302
(g1440
g304
Ntp3297
Rp3298
(dp3299
g1444
g1452
sg1445
g1588
sg328
S'c:/marmalade/7.4/s3e/h/std/sys/uio.h'
p3300
sbsS'IwUncopyable.h'
p3301
g302
(g1440
g304
Ntp3302
Rp3303
(dp3304
g1444
g1322
sg1445
g1481
sg328
g1371
sbssS'juice_build_type'
p3305
g4
sS'tests'
p3306
(lp3307
sS'project_name'
p3308
g310
sS'root_file'
p3309
g120
sS'current_root'
p3310
S'c:/Users/YUSUKE-SATO/Documents/GitHub/MonkFlip/MonkFlip'
p3311
sS'dependencies'
p3312
(lp3313
sS'include_paths'
p3314
(lp3315
S'c:/marmalade/7.4/modules/iw2d/h'
p3316
aS'c:/marmalade/7.4/modules/iwgx/h'
p3317
aS'c:/marmalade/7.4/modules/iwgl/h'
p3318
aS'c:/marmalade/7.4/modules/iwutil/h'
p3319
aS'c:/marmalade/7.4/modules/third_party/libjpeg/h'
p3320
aS'c:/marmalade/7.4/modules/third_party/zlib/h'
p3321
aS'c:/marmalade/7.4/modules/third_party/libpng/h'
p3322
aS'c:/marmalade/7.4/modules/iwgeom/h'
p3323
aS'c:/marmalade/7.4/modules/iwresmanager/h'
p3324
aS'c:/marmalade/7.4/extensions/pvrtextool/h'
p3325
aS'c:/marmalade/7.4/modules/iwgxfont/h'
p3326
aS'c:/marmalade/7.4/modules/third_party/tiniconv/source'
p3327
aS'c:/Users/YUSUKE-SATO/Documents/GitHub/MonkFlip/MonkFlip/source'
p3328
aS'c:/marmalade/7.4/s3e/h'
p3329
aS'c:/marmalade/7.4/s3e/h/ext'
p3330
aS'c:/marmalade/7.4/s3e/h/std'
p3331
aS'c:/marmalade/7.4/s3e/h/std/c++'
p3332
aS'c:/marmalade/7.4/s3e/h/ext_legacy'
p3333
aS'c:/marmalade/7.4/s3e/h/legacy'
p3334
asS'weak_frameworks'
p3335
(lp3336
sS'extprojects'
p3337
(dp3338
sg558
(dp3339
g552
(lp3340
(S'c:/Users/YUSUKE-SATO/Documents/GitHub/MonkFlip/MonkFlip/data-ram/data-gles1/level1.group.bin,c:/Users/YUSUKE-SATO/Documents/GitHub/MonkFlip/MonkFlip/data/level1.group.bin'
p3341
S'level1.group.bin'
p3342
I0
tp3343
assS'macro_types'
p3344
(dp3345
g501
I1
sg502
I0
sg503
I0
sg504
I0
sg505
I0
sg506
I0
sg507
I0
sg508
I0
sg509
I0
sg511
I0
sg512
I0
sg513
I0
sg514
I0
sg516
I0
sg518
I0
sg519
I0
sg520
I0
sg521
I1
sg522
I0
sg523
I0
sg524
I0
sg525
I01
sg526
I1
sg527
I0
sg528
I0
sg529
I0
sg531
I0
sg532
I0
sg533
I0
ssS'commands'
p3346
(lp3347
sg560
(g1009
S'VC12X'
p3348
S'X86ARM'
p3349
tp3350
sS'build_libs'
p3351
(dp3352
sg562
g0
sS'frameworks'
p3353
(lp3354
sS'environ'
p3355
(dp3356
sS'target_name_debug'
p3357
g310
sS'builders'
p3358
(dp3359
g552
(dp3360
S'.S'
p3361
(dp3362
S'rvct'
p3363
(lp3364
S'.obj'
p3365
aS'echo ARM Assembling(RVCT) ${SOURCE}...'
p3366
aS'c:/marmalade/7.4/s3e\\rvct\\bin\\armasm -o ${TARGET} ${SOURCE}'
p3367
asg424
(lp3368
g3365
aS'echo ARM Assembling(GCC) ${SOURCE}...'
p3369
aS'c:/marmalade/7.4/s3e\\gcc\\bin\\arm-none-eabi-gcc -c -o ${TARGET} ${SOURCE}'
p3370
asS'ppu'
p3371
(lp3372
S'.a'
p3373
aS'echo PPU Assembling(SNC) ${SOURCE}...'
p3374
aS'c:/marmalade/7.4/s3e\\rvct\\bin\\armasm -o ${TARGET} ${SOURCE}'
p3375
assS'.s'
p3376
g3362
sS'.vp'
p3377
(lp3378
NaS'"C:/Marmalade/7.4/s3e/python/python.exe" "c:/marmalade/7.4/modules/iwgx/tools/compile_shaders.py" ${SOURCE}'
p3379
asssS'extproject_names'
p3380
(lp3381
sbtp3382
.